
stencil:     file format elf64-littleaarch64


Disassembly of section .interp:

0000000000400238 <.interp>:
  400238:	62696c2f 	.inst	0x62696c2f ; undefined
  40023c:	2d646c2f 	ldp	s15, s27, [x1, #-224]
  400240:	756e696c 	.inst	0x756e696c ; undefined
  400244:	61612d78 	.inst	0x61612d78 ; undefined
  400248:	36686372 	tbz	w18, #13, 400eb4 <_init-0x45c>
  40024c:	6f732e34 	.inst	0x6f732e34 ; undefined
  400250:	Address 0x0000000000400250 is out of bounds.


Disassembly of section .note.ABI-tag:

0000000000400254 <.note.ABI-tag>:
  400254:	00000004 	udf	#4
  400258:	00000010 	udf	#16
  40025c:	00000001 	udf	#1
  400260:	00554e47 	.inst	0x00554e47 ; undefined
  400264:	00000000 	udf	#0
  400268:	00000003 	udf	#3
  40026c:	00000007 	udf	#7
  400270:	00000000 	udf	#0

Disassembly of section .hash:

0000000000400278 <.hash>:
  400278:	00000025 	udf	#37
  40027c:	00000030 	udf	#48
  400280:	00000025 	udf	#37
  400284:	0000001f 	udf	#31
  400288:	0000001c 	udf	#28
  40028c:	00000006 	udf	#6
  400290:	00000015 	udf	#21
  400294:	00000000 	udf	#0
  400298:	0000001d 	udf	#29
  40029c:	0000001a 	udf	#26
  4002a0:	00000027 	udf	#39
	...
  4002ac:	00000021 	udf	#33
  4002b0:	0000002f 	udf	#47
  4002b4:	0000000d 	udf	#13
  4002b8:	00000010 	udf	#16
  4002bc:	0000002b 	udf	#43
  4002c0:	00000000 	udf	#0
  4002c4:	00000023 	udf	#35
  4002c8:	0000002a 	udf	#42
  4002cc:	00000007 	udf	#7
  4002d0:	0000002e 	udf	#46
  4002d4:	00000008 	udf	#8
  4002d8:	00000000 	udf	#0
  4002dc:	00000009 	udf	#9
  4002e0:	0000001e 	udf	#30
  4002e4:	00000000 	udf	#0
  4002e8:	00000019 	udf	#25
  4002ec:	00000029 	udf	#41
  4002f0:	00000000 	udf	#0
  4002f4:	0000000c 	udf	#12
  4002f8:	00000022 	udf	#34
  4002fc:	00000013 	udf	#19
  400300:	0000002d 	udf	#45
  400304:	00000026 	udf	#38
  400308:	00000028 	udf	#40
	...
  40032c:	00000003 	udf	#3
	...
  400344:	00000004 	udf	#4
	...
  40035c:	0000000a 	udf	#10
  400360:	00000012 	udf	#18
  400364:	00000002 	udf	#2
  400368:	00000000 	udf	#0
  40036c:	0000000f 	udf	#15
  400370:	00000000 	udf	#0
  400374:	00000014 	udf	#20
  400378:	00000001 	udf	#1
  40037c:	00000000 	udf	#0
  400380:	00000011 	udf	#17
  400384:	00000018 	udf	#24
  400388:	00000000 	udf	#0
  40038c:	0000000e 	udf	#14
  400390:	0000001b 	udf	#27
	...
  40039c:	00000005 	udf	#5
	...
  4003ac:	00000020 	udf	#32
  4003b0:	00000024 	udf	#36
	...
  4003bc:	00000017 	udf	#23
  4003c0:	0000002c 	udf	#44
  4003c4:	00000000 	udf	#0
  4003c8:	0000000b 	udf	#11
  4003cc:	00000000 	udf	#0
  4003d0:	00000016 	udf	#22

Disassembly of section .gnu.hash:

00000000004003d8 <.gnu.hash>:
  4003d8:	00000003 	udf	#3
  4003dc:	0000002c 	udf	#44
  4003e0:	00000001 	udf	#1
  4003e4:	00000006 	udf	#6
  4003e8:	00100000 	.inst	0x00100000 ; undefined
  4003ec:	09002121 	.inst	0x09002121 ; undefined
  4003f0:	00000000 	udf	#0
  4003f4:	0000002c 	udf	#44
  4003f8:	0000002d 	udf	#45
  4003fc:	1c93deed 	ldr	s13, 327fd8 <_init-0xd9338>
  400400:	430c9814 	.inst	0x430c9814 ; undefined
  400404:	b66b4978 	tbz	x24, #45, 406d30 <__FRAME_END__+0x2454>
  400408:	4cd54529 	ld3	{v9.8h-v11.8h}, [x9], x21

Disassembly of section .dynsym:

0000000000400410 <.dynsym>:
	...
  400428:	00000133 	udf	#307
  40042c:	00000012 	udf	#18
	...
  400440:	0000037c 	udf	#892
  400444:	00000012 	udf	#18
	...
  400458:	0000025d 	udf	#605
  40045c:	00000012 	udf	#18
	...
  400470:	00000361 	udf	#865
  400474:	00000012 	udf	#18
	...
  400488:	000000a6 	udf	#166
  40048c:	00000012 	udf	#18
	...
  4004a0:	00000383 	udf	#899
  4004a4:	00000012 	udf	#18
	...
  4004b8:	00000265 	udf	#613
  4004bc:	00000012 	udf	#18
	...
  4004d0:	00000345 	udf	#837
  4004d4:	00000012 	udf	#18
	...
  4004e8:	00000046 	udf	#70
  4004ec:	00000012 	udf	#18
	...
  400500:	000003b8 	udf	#952
  400504:	00000012 	udf	#18
	...
  400518:	00000375 	udf	#885
  40051c:	00000012 	udf	#18
	...
  400530:	0000006c 	udf	#108
  400534:	00000012 	udf	#18
	...
  400548:	00000160 	udf	#352
  40054c:	00000012 	udf	#18
	...
  400560:	00000240 	udf	#576
  400564:	00000012 	udf	#18
	...
  400578:	00000391 	udf	#913
  40057c:	00000012 	udf	#18
	...
  400590:	000003a6 	udf	#934
  400594:	00000012 	udf	#18
	...
  4005a8:	0000016e 	udf	#366
  4005ac:	00000012 	udf	#18
	...
  4005c0:	000001a6 	udf	#422
  4005c4:	00000012 	udf	#18
	...
  4005d8:	00000064 	udf	#100
  4005dc:	00000012 	udf	#18
	...
  4005f0:	00000288 	udf	#648
  4005f4:	00000012 	udf	#18
	...
  400608:	0000030b 	udf	#779
  40060c:	00000012 	udf	#18
	...
  400620:	00000368 	udf	#872
  400624:	00000012 	udf	#18
	...
  400638:	000000e5 	udf	#229
  40063c:	00000012 	udf	#18
	...
  400650:	0000013f 	udf	#319
  400654:	00000012 	udf	#18
	...
  400668:	0000039e 	udf	#926
  40066c:	00000012 	udf	#18
	...
  400680:	000000b8 	udf	#184
  400684:	00000012 	udf	#18
	...
  400698:	0000032e 	udf	#814
  40069c:	00000012 	udf	#18
	...
  4006b0:	00000261 	udf	#609
  4006b4:	00000012 	udf	#18
	...
  4006c8:	00000212 	udf	#530
  4006cc:	00000012 	udf	#18
	...
  4006e0:	000002d9 	udf	#729
  4006e4:	00000012 	udf	#18
	...
  4006f8:	000001ac 	udf	#428
  4006fc:	00000012 	udf	#18
	...
  400710:	0000033f 	udf	#831
  400714:	00000012 	udf	#18
	...
  400728:	00000230 	udf	#560
  40072c:	00000012 	udf	#18
	...
  400740:	0000027a 	udf	#634
  400744:	00000012 	udf	#18
	...
  400758:	00000010 	udf	#16
  40075c:	00000020 	udf	#32
	...
  400770:	0000031f 	udf	#799
  400774:	00000012 	udf	#18
	...
  400788:	000001c4 	udf	#452
  40078c:	00000012 	udf	#18
	...
  4007a0:	000002e7 	udf	#743
  4007a4:	00000012 	udf	#18
	...
  4007b8:	00000001 	udf	#1
  4007bc:	00000020 	udf	#32
	...
  4007d0:	000002fb 	udf	#763
  4007d4:	00000012 	udf	#18
	...
  4007e8:	0000002c 	udf	#44
  4007ec:	00000020 	udf	#32
	...
  400800:	000002b1 	udf	#689
  400804:	00000012 	udf	#18
	...
  400818:	00000353 	udf	#851
  40081c:	00000012 	udf	#18
	...
  400830:	0000035a 	udf	#858
  400834:	00000012 	udf	#18
  400838:	004013c0 	.inst	0x004013c0 ; undefined
	...
  400848:	00000208 	udf	#520
  40084c:	00190011 	.inst	0x00190011 ; undefined
  400850:	00415178 	.inst	0x00415178 ; undefined
  400854:	00000000 	udf	#0
  400858:	00000110 	udf	#272
  40085c:	00000000 	udf	#0
  400860:	000000d0 	udf	#208
  400864:	00000012 	udf	#18
  400868:	00401570 	.inst	0x00401570 ; undefined
	...
  400878:	0000008e 	udf	#142
  40087c:	00000012 	udf	#18
  400880:	00401600 	.inst	0x00401600 ; undefined
	...

Disassembly of section .dynstr:

0000000000400890 <.dynstr>:
  400890:	675f5f00 	.inst	0x675f5f00 ; undefined
  400894:	5f6e6f6d 	.inst	0x5f6e6f6d ; undefined
  400898:	72617473 	.inst	0x72617473 ; undefined
  40089c:	005f5f74 	.inst	0x005f5f74 ; undefined
  4008a0:	4d54495f 	.inst	0x4d54495f ; undefined
  4008a4:	7265645f 	.inst	0x7265645f ; undefined
  4008a8:	73696765 	.inst	0x73696765 ; undefined
  4008ac:	54726574 	.inst	0x54726574 ; undefined
  4008b0:	6f6c434d 	mls	v13.8h, v26.8h, v12.h[2]
  4008b4:	6154656e 	.inst	0x6154656e ; undefined
  4008b8:	00656c62 	.inst	0x00656c62 ; undefined
  4008bc:	4d54495f 	.inst	0x4d54495f ; undefined
  4008c0:	6765725f 	.inst	0x6765725f ; undefined
  4008c4:	65747369 	fnmls	z9.h, p4/m, z27.h, z20.h
  4008c8:	434d5472 	.inst	0x434d5472 ; undefined
  4008cc:	656e6f6c 	fnmls	z12.h, p3/m, z27.h, z14.h
  4008d0:	6c626154 	ldnp	d20, d24, [x10, #-480]
  4008d4:	5a5f0065 	.inst	0x5a5f0065 ; undefined
  4008d8:	30327453 	adr	x19, 465761 <__bss_end__+0x50439>
  4008dc:	68745f5f 	.inst	0x68745f5f ; undefined
  4008e0:	5f776f72 	.inst	0x5f776f72 ; undefined
  4008e4:	676e656c 	.inst	0x676e656c ; undefined
  4008e8:	655f6874 	fcmne	p4.h, p2/z, z3.h, z31.h
  4008ec:	726f7272 	.inst	0x726f7272 ; undefined
  4008f0:	00634b50 	.inst	0x00634b50 ; undefined
  4008f4:	6c645a5f 	ldnp	d31, d22, [x18, #-448]
  4008f8:	006d7650 	.inst	0x006d7650 ; undefined
  4008fc:	74535a5f 	.inst	0x74535a5f ; undefined
  400900:	5f5f3432 	srsra	d18, d1, #33
  400904:	6f726874 	umlsl2	v20.4s, v3.8h, v2.h[7]
  400908:	6e695f77 	uqrshl	v23.8h, v27.8h, v9.8h
  40090c:	696c6176 	ldpsw	x22, x24, [x11, #-160]
  400910:	72615f64 	.inst	0x72615f64 ; undefined
  400914:	656d7567 	fnmls	z7.h, p5/m, z11.h, z13.h
  400918:	4b50746e 	sub	w14, w3, w16, lsr #29
  40091c:	5a5f0063 	.inst	0x5a5f0063 ; undefined
  400920:	3874534e 	ldsminlb	w20, w14, [x26]
  400924:	5f736f69 	.inst	0x5f736f69 ; undefined
  400928:	65736162 	fnmls	z2.h, p0/m, z11.h, z19.h
  40092c:	696e4934 	ldpsw	x20, x18, [x9, #-144]
  400930:	45314474 	.inst	0x45314474 ; undefined
  400934:	5f5f0076 	.inst	0x5f5f0076 ; undefined
  400938:	5f617863 	sqdmlsl	s3, h3, v1.h[6]
  40093c:	69676562 	ldpsw	x2, x25, [x11, #-200]
  400940:	61635f6e 	.inst	0x61635f6e ; undefined
  400944:	00686374 	.inst	0x00686374 ; undefined
  400948:	74535a5f 	.inst	0x74535a5f ; undefined
  40094c:	5f5f3631 	srsra	d17, d17, #33
  400950:	6f726874 	umlsl2	v20.4s, v3.8h, v2.h[7]
  400954:	61625f77 	.inst	0x61625f77 ; undefined
  400958:	61635f64 	.inst	0x61635f64 ; undefined
  40095c:	00767473 	.inst	0x00767473 ; undefined
  400960:	78675f5f 	.inst	0x78675f5f ; undefined
  400964:	65705f78 	fnmla	z24.h, p7/m, z27.h, z16.h
  400968:	6e6f7372 	uabdl2	v18.4s, v27.8h, v15.8h
  40096c:	74696c61 	.inst	0x74696c61 ; undefined
  400970:	30765f79 	adr	x25, 4ed55d <__bss_end__+0xd8235>
  400974:	535a5f00 	.inst	0x535a5f00 ; undefined
  400978:	5f363174 	.inst	0x5f363174 ; undefined
  40097c:	74736f5f 	.inst	0x74736f5f ; undefined
  400980:	6d616572 	ldp	d18, d25, [x11, #-496]
  400984:	736e695f 	.inst	0x736e695f ; undefined
  400988:	49747265 	.inst	0x49747265 ; undefined
  40098c:	31745363 	adds	w3, w27, #0xd14, lsl #12
  400990:	61686331 	.inst	0x61686331 ; undefined
  400994:	72745f72 	.inst	0x72745f72 ; undefined
  400998:	73746961 	.inst	0x73746961 ; undefined
  40099c:	45456349 	sqdmullb	z9.h, z26.b, z5.b
  4009a0:	31745352 	adds	w18, w26, #0xd14, lsl #12
  4009a4:	73616233 	.inst	0x73616233 ; undefined
  4009a8:	6f5f6369 	umlsl2	v9.4s, v27.8h, v15.h[1]
  4009ac:	65727473 	fnmls	z19.h, p5/m, z3.h, z18.h
  4009b0:	54496d61 	b.ne	49375c <__bss_end__+0x7e434>  // b.any
  4009b4:	5f30545f 	.inst	0x5f30545f ; undefined
  4009b8:	5f365345 	fmls	h5, h26, v6.h[3]
  4009bc:	33534b50 	.inst	0x33534b50 ; undefined
  4009c0:	5f006c5f 	.inst	0x5f006c5f ; undefined
  4009c4:	6f534e5a 	.inst	0x6f534e5a ; undefined
  4009c8:	74757033 	.inst	0x74757033 ; undefined
  4009cc:	5f006345 	.inst	0x5f006345 ; undefined
  4009d0:	534b4e5a 	.inst	0x534b4e5a ; undefined
  4009d4:	74633574 	.inst	0x74633574 ; undefined
  4009d8:	49657079 	.inst	0x49657079 ; undefined
  4009dc:	33314563 	.inst	0x33314563 ; undefined
  4009e0:	775f4d5f 	.inst	0x775f4d5f ; undefined
  4009e4:	6e656469 	umax	v9.8h, v3.8h, v5.8h
  4009e8:	696e695f 	ldpsw	xzr, x26, [x10, #-144]
  4009ec:	00764574 	.inst	0x00764574 ; undefined
  4009f0:	534e5a5f 	.inst	0x534e5a5f ; undefined
  4009f4:	6c66356f 	ldnp	d15, d13, [x11, #-416]
  4009f8:	45687375 	subhnb	z21.b, z27.h, z8.h
  4009fc:	5a5f0076 	.inst	0x5a5f0076 ; undefined
  400a00:	736c7453 	.inst	0x736c7453 ; undefined
  400a04:	31745349 	adds	w9, w26, #0xd14, lsl #12
  400a08:	61686331 	.inst	0x61686331 ; undefined
  400a0c:	72745f72 	.inst	0x72745f72 ; undefined
  400a10:	73746961 	.inst	0x73746961 ; undefined
  400a14:	45456349 	sqdmullb	z9.h, z26.b, z5.b
  400a18:	31745352 	adds	w18, w26, #0xd14, lsl #12
  400a1c:	73616233 	.inst	0x73616233 ; undefined
  400a20:	6f5f6369 	umlsl2	v9.4s, v27.8h, v15.h[1]
  400a24:	65727473 	fnmls	z19.h, p5/m, z3.h, z18.h
  400a28:	63496d61 	.inst	0x63496d61 ; undefined
  400a2c:	53455f54 	.inst	0x53455f54 ; undefined
  400a30:	4b505f35 	sub	w21, w25, w16, lsr #23
  400a34:	5a5f0063 	.inst	0x5a5f0063 ; undefined
  400a38:	006d776e 	.inst	0x006d776e ; undefined
  400a3c:	534e5a5f 	.inst	0x534e5a5f ; undefined
  400a40:	6f693874 	fcmla	v20.8h, v3.8h, v9.h[3], #90
  400a44:	61625f73 	.inst	0x61625f73 ; undefined
  400a48:	49346573 	.inst	0x49346573 ; undefined
  400a4c:	4374696e 	.inst	0x4374696e ; undefined
  400a50:	00764531 	.inst	0x00764531 ; undefined
  400a54:	534e5a5f 	.inst	0x534e5a5f ; undefined
  400a58:	5f5f3774 	srsra	d20, d27, #33
  400a5c:	31787863 	adds	w3, w3, #0xe1e, lsl #12
  400a60:	62323131 	.inst	0x62323131 ; undefined
  400a64:	63697361 	.inst	0x63697361 ; undefined
  400a68:	7274735f 	.inst	0x7274735f ; undefined
  400a6c:	49676e69 	.inst	0x49676e69 ; undefined
  400a70:	31745363 	adds	w3, w27, #0xd14, lsl #12
  400a74:	61686331 	.inst	0x61686331 ; undefined
  400a78:	72745f72 	.inst	0x72745f72 ; undefined
  400a7c:	73746961 	.inst	0x73746961 ; undefined
  400a80:	53456349 	.inst	0x53456349 ; undefined
  400a84:	45634961 	.inst	0x45634961 ; undefined
  400a88:	4d5f3945 	.inst	0x4d5f3945 ; undefined
  400a8c:	6572635f 	fnmls	z31.h, p0/m, z26.h, z18.h
  400a90:	45657461 	subhnt	z1.b, z3.h, z5.h
  400a94:	006d6d52 	.inst	0x006d6d52 ; undefined
  400a98:	74535a5f 	.inst	0x74535a5f ; undefined
  400a9c:	756f6334 	.inst	0x756f6334 ; undefined
  400aa0:	5a5f0074 	.inst	0x5a5f0074 ; undefined
  400aa4:	30327453 	adr	x19, 46592d <__bss_end__+0x50605>
  400aa8:	68745f5f 	.inst	0x68745f5f ; undefined
  400aac:	5f776f72 	.inst	0x5f776f72 ; undefined
  400ab0:	5f74756f 	sqshl	d15, d11, #52
  400ab4:	725f666f 	.inst	0x725f666f ; undefined
  400ab8:	65676e61 	fnmls	z1.h, p3/m, z19.h, z7.h
  400abc:	00634b50 	.inst	0x00634b50 ; undefined
  400ac0:	78635f5f 	.inst	0x78635f5f ; undefined
  400ac4:	6e655f61 	uqrshl	v1.8h, v27.8h, v5.8h
  400ac8:	61635f64 	.inst	0x61635f64 ; undefined
  400acc:	00686374 	.inst	0x00686374 ; undefined
  400ad0:	74535a5f 	.inst	0x74535a5f ; undefined
  400ad4:	5f5f3931 	sqdmlal	s17, h9, v15.h[5]
  400ad8:	6f726874 	umlsl2	v20.4s, v3.8h, v2.h[7]
  400adc:	6f6c5f77 	.inst	0x6f6c5f77 ; undefined
  400ae0:	5f636967 	.inst	0x5f636967 ; undefined
  400ae4:	6f727265 	fcmla	v5.8h, v19.8h, v18.h[1], #270
  400ae8:	634b5072 	.inst	0x634b5072 ; undefined
  400aec:	736f6300 	.inst	0x736f6300 ; undefined
  400af0:	6e697300 	uabdl2	v0.4s, v24.8h, v9.8h
  400af4:	4d4f4700 	.inst	0x4d4f4700 ; undefined
  400af8:	6f6c5f50 	.inst	0x6f6c5f50 ; undefined
  400afc:	655f706f 	fcmeq	p15.h, p4/z, z3.h, z31.h
  400b00:	6e5f646e 	.inst	0x6e5f646e ; undefined
  400b04:	6961776f 	ldpsw	x15, x29, [x27, #-248]
  400b08:	4f470074 	.inst	0x4f470074 ; undefined
  400b0c:	6c5f504d 	ldnp	d13, d20, [x2, #496]
  400b10:	5f706f6f 	.inst	0x5f706f6f ; undefined
  400b14:	00646e65 	.inst	0x00646e65 ; undefined
  400b18:	504d4f47 	adr	x7, 49b502 <__bss_end__+0x861da>
  400b1c:	6f6f6c5f 	.inst	0x6f6f6c5f ; undefined
  400b20:	6c755f70 	ldnp	d16, d23, [x27, #-176]
  400b24:	6f6e5f6c 	.inst	0x6f6e5f6c ; undefined
  400b28:	6e6f6d6e 	umin	v14.8h, v11.8h, v15.8h
  400b2c:	6e6f746f 	uabd	v15.8h, v3.8h, v15.8h
  400b30:	645f6369 	fcmla	z9.h, p0/m, z27.h, z31.h, #270
  400b34:	6d616e79 	ldp	d25, d27, [x19, #-496]
  400b38:	735f6369 	.inst	0x735f6369 ; undefined
  400b3c:	74726174 	.inst	0x74726174 ; undefined
  400b40:	4d4f4700 	.inst	0x4d4f4700 ; undefined
  400b44:	6f6c5f50 	.inst	0x6f6c5f50 ; undefined
  400b48:	755f706f 	.inst	0x755f706f ; undefined
  400b4c:	6e5f6c6c 	.inst	0x6e5f6c6c ; undefined
  400b50:	6f6d6e6f 	.inst	0x6f6d6e6f ; undefined
  400b54:	6f746f6e 	.inst	0x6f746f6e ; undefined
  400b58:	5f63696e 	.inst	0x5f63696e ; undefined
  400b5c:	616e7964 	.inst	0x616e7964 ; undefined
  400b60:	5f63696d 	.inst	0x5f63696d ; undefined
  400b64:	7478656e 	.inst	0x7478656e ; undefined
  400b68:	4d4f4700 	.inst	0x4d4f4700 ; undefined
  400b6c:	61705f50 	.inst	0x61705f50 ; undefined
  400b70:	6c6c6172 	ldnp	d18, d24, [x11, #-320]
  400b74:	6f006c65 	.inst	0x6f006c65 ; undefined
  400b78:	675f706d 	.inst	0x675f706d ; undefined
  400b7c:	6e5f7465 	.inst	0x6e5f7465 ; undefined
  400b80:	745f6d75 	.inst	0x745f6d75 ; undefined
  400b84:	61657268 	.inst	0x61657268 ; undefined
  400b88:	6f007364 	.inst	0x6f007364 ; undefined
  400b8c:	735f706d 	.inst	0x735f706d ; undefined
  400b90:	645f7465 	fcmla	z5.h, p5/m, z3.h, z31.h, #270
  400b94:	6d616e79 	ldp	d25, d27, [x19, #-496]
  400b98:	6f006369 	.inst	0x6f006369 ; undefined
  400b9c:	735f706d 	.inst	0x735f706d ; undefined
  400ba0:	6e5f7465 	.inst	0x6e5f7465 ; undefined
  400ba4:	745f6d75 	.inst	0x745f6d75 ; undefined
  400ba8:	61657268 	.inst	0x61657268 ; undefined
  400bac:	5f007364 	.inst	0x5f007364 ; undefined
  400bb0:	69776e55 	ldpsw	x21, x27, [x18, #-72]
  400bb4:	525f646e 	.inst	0x525f646e ; undefined
  400bb8:	6d757365 	ldp	d5, d28, [x27, #-176]
  400bbc:	5f5f0065 	.inst	0x5f5f0065 ; undefined
  400bc0:	6e727265 	uabdl2	v5.4s, v19.8h, v18.8h
  400bc4:	6f6c5f6f 	.inst	0x6f6c5f6f ; undefined
  400bc8:	69746163 	ldpsw	x3, x24, [x11, #-96]
  400bcc:	61006e6f 	.inst	0x61006e6f ; undefined
  400bd0:	74726f62 	.inst	0x74726f62 ; undefined
  400bd4:	615f5f00 	.inst	0x615f5f00 ; undefined
  400bd8:	72657373 	.inst	0x72657373 ; undefined
  400bdc:	61665f74 	.inst	0x61665f74 ; undefined
  400be0:	70006c69 	adr	x9, 40196f <main+0x34f>
  400be4:	746e6972 	.inst	0x746e6972 ; undefined
  400be8:	74730066 	.inst	0x74730066 ; undefined
  400bec:	6c6f7472 	ldnp	d18, d29, [x3, #-272]
  400bf0:	72747300 	.inst	0x72747300 ; undefined
  400bf4:	006e656c 	.inst	0x006e656c ; undefined
  400bf8:	78635f5f 	.inst	0x78635f5f ; undefined
  400bfc:	74615f61 	.inst	0x74615f61 ; undefined
  400c00:	74697865 	.inst	0x74697865 ; undefined
  400c04:	6d656d00 	ldp	d0, d27, [x8, #-432]
  400c08:	00746573 	.inst	0x00746573 ; undefined
  400c0c:	636d656d 	.inst	0x636d656d ; undefined
  400c10:	61007970 	.inst	0x61007970 ; undefined
  400c14:	6e67696c 	.inst	0x6e67696c ; undefined
  400c18:	615f6465 	.inst	0x615f6465 ; undefined
  400c1c:	636f6c6c 	.inst	0x636f6c6c ; undefined
  400c20:	74656700 	.inst	0x74656700 ; undefined
  400c24:	656d6974 	fnmls	z20.h, p2/m, z11.h, z13.h
  400c28:	6164666f 	.inst	0x6164666f ; undefined
  400c2c:	656d0079 	fmla	z25.h, p0/m, z3.h, z13.h
  400c30:	766f6d6d 	.inst	0x766f6d6d ; undefined
  400c34:	5f5f0065 	.inst	0x5f5f0065 ; undefined
  400c38:	6362696c 	.inst	0x6362696c ; undefined
  400c3c:	6174735f 	.inst	0x6174735f ; undefined
  400c40:	6d5f7472 	ldp	d18, d29, [x3, #496]
  400c44:	006e6961 	.inst	0x006e6961 ; undefined
  400c48:	65657266 	fnmls	z6.h, p4/m, z19.h, z5.h
  400c4c:	62696c00 	.inst	0x62696c00 ; undefined
  400c50:	63647473 	.inst	0x63647473 ; undefined
  400c54:	732e2b2b 	.inst	0x732e2b2b ; undefined
  400c58:	00362e6f 	.inst	0x00362e6f ; NYI
  400c5c:	6d62696c 	ldp	d12, d26, [x11, #-480]
  400c60:	2e6f732e 	uabdl	v14.4s, v25.4h, v15.4h
  400c64:	696c0036 	ldpsw	x22, x0, [x1, #-160]
  400c68:	6d6f6762 	ldp	d2, d25, [x27, #-272]
  400c6c:	6f732e70 	.inst	0x6f732e70 ; undefined
  400c70:	6c00312e 	stnp	d14, d12, [x9]
  400c74:	63676269 	.inst	0x63676269 ; undefined
  400c78:	2e735f63 	uqrshl	v3.4h, v27.4h, v19.4h
  400c7c:	312e6f73 	adds	w19, w27, #0xb9b
  400c80:	62696c00 	.inst	0x62696c00 ; undefined
  400c84:	72687470 	.inst	0x72687470 ; undefined
  400c88:	2e646165 	rsubhn	v5.4h, v11.4s, v4.4s
  400c8c:	302e6f73 	adr	x19, 45da79 <__bss_end__+0x48751>
  400c90:	62696c00 	.inst	0x62696c00 ; undefined
  400c94:	6f732e63 	.inst	0x6f732e63 ; undefined
  400c98:	4700362e 	.inst	0x4700362e ; undefined
  400c9c:	335f4343 	.inst	0x335f4343 ; undefined
  400ca0:	4700302e 	.inst	0x4700302e ; undefined
  400ca4:	4342494c 	.inst	0x4342494c ; undefined
  400ca8:	312e325f 	cmn	w18, #0xb8c
  400cac:	4f470037 	.inst	0x4f470037 ; undefined
  400cb0:	345f504d 	cbz	w13, 4bf6b8 <__bss_end__+0xaa390>
  400cb4:	4700302e 	.inst	0x4700302e ; undefined
  400cb8:	5f504d4f 	.inst	0x5f504d4f ; undefined
  400cbc:	00352e34 	.inst	0x00352e34 ; NYI
  400cc0:	504d4f47 	adr	x7, 49b6aa <__bss_end__+0x86382>
  400cc4:	302e315f 	adr	xzr, 45d2ed <__bss_end__+0x47fc5>
  400cc8:	494c4700 	.inst	0x494c4700 ; undefined
  400ccc:	58584342 	ldr	x2, 4b1534 <__bss_end__+0x9c20c>
  400cd0:	342e335f 	cbz	wzr, 45d338 <__bss_end__+0x48010>
  400cd4:	0031322e 	.inst	0x0031322e ; NYI
  400cd8:	42494c47 	.inst	0x42494c47 ; undefined
  400cdc:	5f585843 	.inst	0x5f585843 ; undefined
  400ce0:	2e342e33 	uqsub	v19.8b, v17.8b, v20.8b
  400ce4:	47003131 	.inst	0x47003131 ; undefined
  400ce8:	4342494c 	.inst	0x4342494c ; undefined
  400cec:	335f5858 	.inst	0x335f5858 ; undefined
  400cf0:	392e342e 	strb	w14, [x1, #2957]
  400cf4:	58584300 	ldr	x0, 4b1554 <__bss_end__+0x9c22c>
  400cf8:	5f494241 	.inst	0x5f494241 ; undefined
  400cfc:	2e332e31 	uqsub	v17.8b, v17.8b, v19.8b
  400d00:	58430039 	ldr	x25, 486d04 <__bss_end__+0x719dc>
  400d04:	49424158 	.inst	0x49424158 ; undefined
  400d08:	332e315f 	.inst	0x332e315f ; undefined
  400d0c:	494c4700 	.inst	0x494c4700 ; undefined
  400d10:	58584342 	ldr	x2, 4b1578 <__bss_end__+0x9c250>
  400d14:	342e335f 	cbz	wzr, 45d37c <__bss_end__+0x48054>
	...

Disassembly of section .gnu.version:

0000000000400d1a <.gnu.version>:
  400d1a:	00020000 	.inst	0x00020000 ; undefined
  400d1e:	00040003 	.inst	0x00040003 ; undefined
  400d22:	00050003 	.inst	0x00050003 ; undefined
  400d26:	00060003 	.inst	0x00060003 ; undefined
  400d2a:	00020003 	.inst	0x00020003 ; undefined
  400d2e:	00030003 	.inst	0x00030003 ; undefined
  400d32:	00020002 	.inst	0x00020002 ; undefined
  400d36:	00030002 	.inst	0x00030002 ; undefined
  400d3a:	00020003 	.inst	0x00020003 ; undefined
  400d3e:	00070002 	.inst	0x00070002 ; undefined
  400d42:	00090008 	.inst	0x00090008 ; undefined
  400d46:	000a0003 	.inst	0x000a0003 ; undefined
  400d4a:	0003000b 	.inst	0x0003000b ; undefined
  400d4e:	000c0002 	.inst	0x000c0002 ; undefined
  400d52:	00020004 	.inst	0x00020004 ; undefined
  400d56:	0002000d 	.inst	0x0002000d ; undefined
  400d5a:	00050003 	.inst	0x00050003 ; undefined
  400d5e:	00000006 	udf	#6
  400d62:	000f000e 	.inst	0x000f000e ; undefined
  400d66:	00000009 	udf	#9
  400d6a:	00000009 	udf	#9
  400d6e:	00030008 	.inst	0x00030008 ; undefined
  400d72:	00020003 	.inst	0x00020003 ; undefined
  400d76:	00020005 	.inst	0x00020005 ; undefined

Disassembly of section .gnu.version_r:

0000000000400d80 <.gnu.version_r>:
  400d80:	00010001 	.inst	0x00010001 ; undefined
  400d84:	000003e3 	udf	#995
  400d88:	00000010 	udf	#16
  400d8c:	00000020 	udf	#32
  400d90:	0b792650 	.inst	0x0b792650 ; undefined
  400d94:	000e0000 	.inst	0x000e0000 ; undefined
  400d98:	0000040b 	udf	#1035
  400d9c:	00000000 	udf	#0
  400da0:	00010001 	.inst	0x00010001 ; undefined
  400da4:	000003f1 	udf	#1009
  400da8:	00000010 	udf	#16
  400dac:	00000020 	udf	#32
  400db0:	06969197 	.inst	0x06969197 ; undefined
  400db4:	000c0000 	.inst	0x000c0000 ; undefined
  400db8:	00000413 	udf	#1043
  400dbc:	00000000 	udf	#0
  400dc0:	00040001 	.inst	0x00040001 ; undefined
  400dc4:	000003d6 	udf	#982
  400dc8:	00000010 	udf	#16
  400dcc:	00000050 	udf	#80
  400dd0:	042623d0 	.inst	0x042623d0 ; undefined
  400dd4:	000d0000 	.inst	0x000d0000 ; undefined
  400dd8:	0000041e 	udf	#1054
  400ddc:	00000010 	udf	#16
  400de0:	04262440 	.inst	0x04262440 ; undefined
  400de4:	00090000 	.inst	0x00090000 ; undefined
  400de8:	00000431 	udf	#1073
  400dec:	00000010 	udf	#16
  400df0:	042623d5 	.inst	0x042623d5 ; undefined
  400df4:	00080000 	.inst	0x00080000 ; undefined
  400df8:	00000427 	udf	#1063
  400dfc:	00000010 	udf	#16
  400e00:	042628d0 	.inst	0x042628d0 ; undefined
  400e04:	00060000 	.inst	0x00060000 ; undefined
  400e08:	00000430 	udf	#1072
  400e0c:	00000000 	udf	#0
  400e10:	00010001 	.inst	0x00010001 ; undefined
  400e14:	000003cc 	udf	#972
  400e18:	00000010 	udf	#16
  400e1c:	00000020 	udf	#32
  400e20:	06969197 	.inst	0x06969197 ; undefined
  400e24:	00040000 	.inst	0x00040000 ; undefined
  400e28:	00000413 	udf	#1043
  400e2c:	00000000 	udf	#0
  400e30:	00010001 	.inst	0x00010001 ; undefined
  400e34:	00000401 	udf	#1025
  400e38:	00000010 	udf	#16
  400e3c:	00000020 	udf	#32
  400e40:	06969197 	.inst	0x06969197 ; undefined
  400e44:	00030000 	.inst	0x00030000 ; undefined
  400e48:	00000413 	udf	#1043
  400e4c:	00000000 	udf	#0
  400e50:	00060001 	.inst	0x00060001 ; undefined
  400e54:	000003bd 	udf	#957
  400e58:	00000010 	udf	#16
  400e5c:	00000000 	udf	#0
  400e60:	0297f871 	.inst	0x0297f871 ; undefined
  400e64:	000f0000 	.inst	0x000f0000 ; undefined
  400e68:	00000439 	udf	#1081
  400e6c:	00000010 	udf	#16
  400e70:	0297f861 	.inst	0x0297f861 ; undefined
  400e74:	000b0000 	.inst	0x000b0000 ; undefined
  400e78:	00000448 	udf	#1096
  400e7c:	00000010 	udf	#16
  400e80:	02297f89 	.inst	0x02297f89 ; undefined
  400e84:	000a0000 	.inst	0x000a0000 ; undefined
  400e88:	00000457 	udf	#1111
  400e8c:	00000010 	udf	#16
  400e90:	0bafd179 	.inst	0x0bafd179 ; undefined
  400e94:	00070000 	.inst	0x00070000 ; undefined
  400e98:	00000465 	udf	#1125
  400e9c:	00000010 	udf	#16
  400ea0:	056bafd3 	.inst	0x056bafd3 ; undefined
  400ea4:	00050000 	.inst	0x00050000 ; undefined
  400ea8:	00000472 	udf	#1138
  400eac:	00000010 	udf	#16
  400eb0:	08922974 	stllrb	w20, [x11]
  400eb4:	00020000 	.inst	0x00020000 ; undefined
  400eb8:	0000047d 	udf	#1149
  400ebc:	00000000 	udf	#0

Disassembly of section .rela.dyn:

0000000000400ec0 <.rela.dyn>:
  400ec0:	00414fe0 	.inst	0x00414fe0 ; undefined
  400ec4:	00000000 	udf	#0
  400ec8:	00000401 	udf	#1025
  400ecc:	00000027 	udf	#39
	...
  400ed8:	00415178 	.inst	0x00415178 ; undefined
  400edc:	00000000 	udf	#0
  400ee0:	00000400 	udf	#1024
  400ee4:	0000002d 	udf	#45
	...

Disassembly of section .rela.plt:

0000000000400ef0 <.rela.plt>:
  400ef0:	00415000 	.inst	0x00415000 ; undefined
  400ef4:	00000000 	udf	#0
  400ef8:	00000402 	udf	#1026
  400efc:	00000001 	udf	#1
	...
  400f08:	00415008 	.inst	0x00415008 ; undefined
  400f0c:	00000000 	udf	#0
  400f10:	00000402 	udf	#1026
  400f14:	00000002 	udf	#2
	...
  400f20:	00415010 	.inst	0x00415010 ; undefined
  400f24:	00000000 	udf	#0
  400f28:	00000402 	udf	#1026
  400f2c:	00000003 	udf	#3
	...
  400f38:	00415018 	.inst	0x00415018 ; undefined
  400f3c:	00000000 	udf	#0
  400f40:	00000402 	udf	#1026
  400f44:	00000004 	udf	#4
	...
  400f50:	00415020 	.inst	0x00415020 ; undefined
  400f54:	00000000 	udf	#0
  400f58:	00000402 	udf	#1026
  400f5c:	00000005 	udf	#5
	...
  400f68:	00415028 	.inst	0x00415028 ; undefined
  400f6c:	00000000 	udf	#0
  400f70:	00000402 	udf	#1026
  400f74:	00000006 	udf	#6
	...
  400f80:	00415030 	.inst	0x00415030 ; undefined
  400f84:	00000000 	udf	#0
  400f88:	00000402 	udf	#1026
  400f8c:	00000007 	udf	#7
	...
  400f98:	00415038 	.inst	0x00415038 ; undefined
  400f9c:	00000000 	udf	#0
  400fa0:	00000402 	udf	#1026
  400fa4:	0000002c 	udf	#44
	...
  400fb0:	00415040 	.inst	0x00415040 ; undefined
  400fb4:	00000000 	udf	#0
  400fb8:	00000402 	udf	#1026
  400fbc:	00000008 	udf	#8
	...
  400fc8:	00415048 	.inst	0x00415048 ; undefined
  400fcc:	00000000 	udf	#0
  400fd0:	00000402 	udf	#1026
  400fd4:	00000009 	udf	#9
	...
  400fe0:	00415050 	.inst	0x00415050 ; undefined
  400fe4:	00000000 	udf	#0
  400fe8:	00000402 	udf	#1026
  400fec:	0000000a 	udf	#10
	...
  400ff8:	00415058 	.inst	0x00415058 ; undefined
  400ffc:	00000000 	udf	#0
  401000:	00000402 	udf	#1026
  401004:	0000000b 	udf	#11
	...
  401010:	00415060 	.inst	0x00415060 ; undefined
  401014:	00000000 	udf	#0
  401018:	00000402 	udf	#1026
  40101c:	0000000c 	udf	#12
	...
  401028:	00415068 	.inst	0x00415068 ; undefined
  40102c:	00000000 	udf	#0
  401030:	00000402 	udf	#1026
  401034:	0000000d 	udf	#13
	...
  401040:	00415070 	.inst	0x00415070 ; undefined
  401044:	00000000 	udf	#0
  401048:	00000402 	udf	#1026
  40104c:	0000000e 	udf	#14
	...
  401058:	00415078 	.inst	0x00415078 ; undefined
  40105c:	00000000 	udf	#0
  401060:	00000402 	udf	#1026
  401064:	0000000f 	udf	#15
	...
  401070:	00415080 	.inst	0x00415080 ; undefined
  401074:	00000000 	udf	#0
  401078:	00000402 	udf	#1026
  40107c:	00000010 	udf	#16
	...
  401088:	00415088 	.inst	0x00415088 ; undefined
  40108c:	00000000 	udf	#0
  401090:	00000402 	udf	#1026
  401094:	00000011 	udf	#17
	...
  4010a0:	00415090 	.inst	0x00415090 ; undefined
  4010a4:	00000000 	udf	#0
  4010a8:	00000402 	udf	#1026
  4010ac:	00000012 	udf	#18
	...
  4010b8:	00415098 	.inst	0x00415098 ; undefined
  4010bc:	00000000 	udf	#0
  4010c0:	00000402 	udf	#1026
  4010c4:	00000013 	udf	#19
	...
  4010d0:	004150a0 	.inst	0x004150a0 ; undefined
  4010d4:	00000000 	udf	#0
  4010d8:	00000402 	udf	#1026
  4010dc:	00000014 	udf	#20
	...
  4010e8:	004150a8 	.inst	0x004150a8 ; undefined
  4010ec:	00000000 	udf	#0
  4010f0:	00000402 	udf	#1026
  4010f4:	00000015 	udf	#21
	...
  401100:	004150b0 	.inst	0x004150b0 ; undefined
  401104:	00000000 	udf	#0
  401108:	00000402 	udf	#1026
  40110c:	00000016 	udf	#22
	...
  401118:	004150b8 	.inst	0x004150b8 ; undefined
  40111c:	00000000 	udf	#0
  401120:	00000402 	udf	#1026
  401124:	00000017 	udf	#23
	...
  401130:	004150c0 	.inst	0x004150c0 ; undefined
  401134:	00000000 	udf	#0
  401138:	00000402 	udf	#1026
  40113c:	00000018 	udf	#24
	...
  401148:	004150c8 	.inst	0x004150c8 ; undefined
  40114c:	00000000 	udf	#0
  401150:	00000402 	udf	#1026
  401154:	00000019 	udf	#25
	...
  401160:	004150d0 	.inst	0x004150d0 ; undefined
  401164:	00000000 	udf	#0
  401168:	00000402 	udf	#1026
  40116c:	0000001a 	udf	#26
	...
  401178:	004150d8 	.inst	0x004150d8 ; undefined
  40117c:	00000000 	udf	#0
  401180:	00000402 	udf	#1026
  401184:	0000001b 	udf	#27
	...
  401190:	004150e0 	.inst	0x004150e0 ; undefined
  401194:	00000000 	udf	#0
  401198:	00000402 	udf	#1026
  40119c:	0000001c 	udf	#28
	...
  4011a8:	004150e8 	.inst	0x004150e8 ; undefined
  4011ac:	00000000 	udf	#0
  4011b0:	00000402 	udf	#1026
  4011b4:	0000001d 	udf	#29
	...
  4011c0:	004150f0 	.inst	0x004150f0 ; undefined
  4011c4:	00000000 	udf	#0
  4011c8:	00000402 	udf	#1026
  4011cc:	0000001e 	udf	#30
	...
  4011d8:	004150f8 	.inst	0x004150f8 ; undefined
  4011dc:	00000000 	udf	#0
  4011e0:	00000402 	udf	#1026
  4011e4:	0000001f 	udf	#31
	...
  4011f0:	00415100 	.inst	0x00415100 ; undefined
  4011f4:	00000000 	udf	#0
  4011f8:	00000402 	udf	#1026
  4011fc:	00000020 	udf	#32
	...
  401208:	00415108 	.inst	0x00415108 ; undefined
  40120c:	00000000 	udf	#0
  401210:	00000402 	udf	#1026
  401214:	00000021 	udf	#33
	...
  401220:	00415110 	.inst	0x00415110 ; undefined
  401224:	00000000 	udf	#0
  401228:	00000402 	udf	#1026
  40122c:	0000002e 	udf	#46
	...
  401238:	00415118 	.inst	0x00415118 ; undefined
  40123c:	00000000 	udf	#0
  401240:	00000402 	udf	#1026
  401244:	00000022 	udf	#34
	...
  401250:	00415120 	.inst	0x00415120 ; undefined
  401254:	00000000 	udf	#0
  401258:	00000402 	udf	#1026
  40125c:	00000024 	udf	#36
	...
  401268:	00415128 	.inst	0x00415128 ; undefined
  40126c:	00000000 	udf	#0
  401270:	00000402 	udf	#1026
  401274:	00000025 	udf	#37
	...
  401280:	00415130 	.inst	0x00415130 ; undefined
  401284:	00000000 	udf	#0
  401288:	00000402 	udf	#1026
  40128c:	00000026 	udf	#38
	...
  401298:	00415138 	.inst	0x00415138 ; undefined
  40129c:	00000000 	udf	#0
  4012a0:	00000402 	udf	#1026
  4012a4:	00000027 	udf	#39
	...
  4012b0:	00415140 	.inst	0x00415140 ; undefined
  4012b4:	00000000 	udf	#0
  4012b8:	00000402 	udf	#1026
  4012bc:	00000028 	udf	#40
	...
  4012c8:	00415148 	.inst	0x00415148 ; undefined
  4012cc:	00000000 	udf	#0
  4012d0:	00000402 	udf	#1026
  4012d4:	0000002a 	udf	#42
	...
  4012e0:	00415150 	.inst	0x00415150 ; undefined
  4012e4:	00000000 	udf	#0
  4012e8:	00000402 	udf	#1026
  4012ec:	0000002b 	udf	#43
	...
  4012f8:	00415158 	.inst	0x00415158 ; undefined
  4012fc:	00000000 	udf	#0
  401300:	00000402 	udf	#1026
  401304:	0000002f 	udf	#47
	...

Disassembly of section .init:

0000000000401310 <_init>:
  401310:	a9bf7bfd 	stp	x29, x30, [sp, #-16]!
  401314:	910003fd 	mov	x29, sp
  401318:	940001fc 	bl	401b08 <call_weak_fn>
  40131c:	a8c17bfd 	ldp	x29, x30, [sp], #16
  401320:	d65f03c0 	ret

Disassembly of section .plt:

0000000000401330 <.plt>:
  401330:	a9bf7bf0 	stp	x16, x30, [sp, #-16]!
  401334:	f0000090 	adrp	x16, 414000 <__FRAME_END__+0xf724>
  401338:	f947fe11 	ldr	x17, [x16, #4088]
  40133c:	913fe210 	add	x16, x16, #0xff8
  401340:	d61f0220 	br	x17
  401344:	d503201f 	nop
  401348:	d503201f 	nop
  40134c:	d503201f 	nop

0000000000401350 <_ZNSo3putEc@plt>:
  401350:	900000b0 	adrp	x16, 415000 <_ZNSo3putEc@GLIBCXX_3.4>
  401354:	f9400211 	ldr	x17, [x16]
  401358:	91000210 	add	x16, x16, #0x0
  40135c:	d61f0220 	br	x17

0000000000401360 <memcpy@plt>:
  401360:	900000b0 	adrp	x16, 415000 <_ZNSo3putEc@GLIBCXX_3.4>
  401364:	f9400611 	ldr	x17, [x16, #8]
  401368:	91002210 	add	x16, x16, #0x8
  40136c:	d61f0220 	br	x17

0000000000401370 <cos@plt>:
  401370:	900000b0 	adrp	x16, 415000 <_ZNSo3putEc@GLIBCXX_3.4>
  401374:	f9400a11 	ldr	x17, [x16, #16]
  401378:	91004210 	add	x16, x16, #0x10
  40137c:	d61f0220 	br	x17

0000000000401380 <strlen@plt>:
  401380:	900000b0 	adrp	x16, 415000 <_ZNSo3putEc@GLIBCXX_3.4>
  401384:	f9400e11 	ldr	x17, [x16, #24]
  401388:	91006210 	add	x16, x16, #0x18
  40138c:	d61f0220 	br	x17

0000000000401390 <__cxa_begin_catch@plt>:
  401390:	900000b0 	adrp	x16, 415000 <_ZNSo3putEc@GLIBCXX_3.4>
  401394:	f9401211 	ldr	x17, [x16, #32]
  401398:	91008210 	add	x16, x16, #0x20
  40139c:	d61f0220 	br	x17

00000000004013a0 <aligned_alloc@plt>:
  4013a0:	900000b0 	adrp	x16, 415000 <_ZNSo3putEc@GLIBCXX_3.4>
  4013a4:	f9401611 	ldr	x17, [x16, #40]
  4013a8:	9100a210 	add	x16, x16, #0x28
  4013ac:	d61f0220 	br	x17

00000000004013b0 <GOMP_loop_end_nowait@plt>:
  4013b0:	900000b0 	adrp	x16, 415000 <_ZNSo3putEc@GLIBCXX_3.4>
  4013b4:	f9401a11 	ldr	x17, [x16, #48]
  4013b8:	9100c210 	add	x16, x16, #0x30
  4013bc:	d61f0220 	br	x17

00000000004013c0 <strtol@plt>:
  4013c0:	900000b0 	adrp	x16, 415000 <_ZNSo3putEc@GLIBCXX_3.4>
  4013c4:	f9401e11 	ldr	x17, [x16, #56]
  4013c8:	9100e210 	add	x16, x16, #0x38
  4013cc:	d61f0220 	br	x17

00000000004013d0 <__assert_fail@plt>:
  4013d0:	900000b0 	adrp	x16, 415000 <_ZNSo3putEc@GLIBCXX_3.4>
  4013d4:	f9402211 	ldr	x17, [x16, #64]
  4013d8:	91010210 	add	x16, x16, #0x40
  4013dc:	d61f0220 	br	x17

00000000004013e0 <_ZSt20__throw_length_errorPKc@plt>:
  4013e0:	900000b0 	adrp	x16, 415000 <_ZNSo3putEc@GLIBCXX_3.4>
  4013e4:	f9402611 	ldr	x17, [x16, #72]
  4013e8:	91012210 	add	x16, x16, #0x48
  4013ec:	d61f0220 	br	x17

00000000004013f0 <free@plt>:
  4013f0:	900000b0 	adrp	x16, 415000 <_ZNSo3putEc@GLIBCXX_3.4>
  4013f4:	f9402a11 	ldr	x17, [x16, #80]
  4013f8:	91014210 	add	x16, x16, #0x50
  4013fc:	d61f0220 	br	x17

0000000000401400 <memset@plt>:
  401400:	900000b0 	adrp	x16, 415000 <_ZNSo3putEc@GLIBCXX_3.4>
  401404:	f9402e11 	ldr	x17, [x16, #88]
  401408:	91016210 	add	x16, x16, #0x58
  40140c:	d61f0220 	br	x17

0000000000401410 <_ZSt24__throw_invalid_argumentPKc@plt>:
  401410:	900000b0 	adrp	x16, 415000 <_ZNSo3putEc@GLIBCXX_3.4>
  401414:	f9403211 	ldr	x17, [x16, #96]
  401418:	91018210 	add	x16, x16, #0x60
  40141c:	d61f0220 	br	x17

0000000000401420 <_ZNSo5flushEv@plt>:
  401420:	900000b0 	adrp	x16, 415000 <_ZNSo3putEc@GLIBCXX_3.4>
  401424:	f9403611 	ldr	x17, [x16, #104]
  401428:	9101a210 	add	x16, x16, #0x68
  40142c:	d61f0220 	br	x17

0000000000401430 <_ZSt19__throw_logic_errorPKc@plt>:
  401430:	900000b0 	adrp	x16, 415000 <_ZNSo3putEc@GLIBCXX_3.4>
  401434:	f9403a11 	ldr	x17, [x16, #112]
  401438:	9101c210 	add	x16, x16, #0x70
  40143c:	d61f0220 	br	x17

0000000000401440 <gettimeofday@plt>:
  401440:	900000b0 	adrp	x16, 415000 <_ZNSo3putEc@GLIBCXX_3.4>
  401444:	f9403e11 	ldr	x17, [x16, #120]
  401448:	9101e210 	add	x16, x16, #0x78
  40144c:	d61f0220 	br	x17

0000000000401450 <__libc_start_main@plt>:
  401450:	900000b0 	adrp	x16, 415000 <_ZNSo3putEc@GLIBCXX_3.4>
  401454:	f9404211 	ldr	x17, [x16, #128]
  401458:	91020210 	add	x16, x16, #0x80
  40145c:	d61f0220 	br	x17

0000000000401460 <_ZStlsISt11char_traitsIcEERSt13basic_ostreamIcT_ES5_PKc@plt>:
  401460:	900000b0 	adrp	x16, 415000 <_ZNSo3putEc@GLIBCXX_3.4>
  401464:	f9404611 	ldr	x17, [x16, #136]
  401468:	91022210 	add	x16, x16, #0x88
  40146c:	d61f0220 	br	x17

0000000000401470 <_Znwm@plt>:
  401470:	900000b0 	adrp	x16, 415000 <_ZNSo3putEc@GLIBCXX_3.4>
  401474:	f9404a11 	ldr	x17, [x16, #144]
  401478:	91024210 	add	x16, x16, #0x90
  40147c:	d61f0220 	br	x17

0000000000401480 <_ZdlPvm@plt>:
  401480:	900000b0 	adrp	x16, 415000 <_ZNSo3putEc@GLIBCXX_3.4>
  401484:	f9404e11 	ldr	x17, [x16, #152]
  401488:	91026210 	add	x16, x16, #0x98
  40148c:	d61f0220 	br	x17

0000000000401490 <GOMP_loop_ull_nonmonotonic_dynamic_start@plt>:
  401490:	900000b0 	adrp	x16, 415000 <_ZNSo3putEc@GLIBCXX_3.4>
  401494:	f9405211 	ldr	x17, [x16, #160]
  401498:	91028210 	add	x16, x16, #0xa0
  40149c:	d61f0220 	br	x17

00000000004014a0 <omp_set_num_threads@plt>:
  4014a0:	900000b0 	adrp	x16, 415000 <_ZNSo3putEc@GLIBCXX_3.4>
  4014a4:	f9405611 	ldr	x17, [x16, #168]
  4014a8:	9102a210 	add	x16, x16, #0xa8
  4014ac:	d61f0220 	br	x17

00000000004014b0 <__cxa_atexit@plt>:
  4014b0:	900000b0 	adrp	x16, 415000 <_ZNSo3putEc@GLIBCXX_3.4>
  4014b4:	f9405a11 	ldr	x17, [x16, #176]
  4014b8:	9102c210 	add	x16, x16, #0xb0
  4014bc:	d61f0220 	br	x17

00000000004014c0 <_ZSt16__ostream_insertIcSt11char_traitsIcEERSt13basic_ostreamIT_T0_ES6_PKS3_l@plt>:
  4014c0:	900000b0 	adrp	x16, 415000 <_ZNSo3putEc@GLIBCXX_3.4>
  4014c4:	f9405e11 	ldr	x17, [x16, #184]
  4014c8:	9102e210 	add	x16, x16, #0xb8
  4014cc:	d61f0220 	br	x17

00000000004014d0 <_ZNKSt5ctypeIcE13_M_widen_initEv@plt>:
  4014d0:	900000b0 	adrp	x16, 415000 <_ZNSo3putEc@GLIBCXX_3.4>
  4014d4:	f9406211 	ldr	x17, [x16, #192]
  4014d8:	91030210 	add	x16, x16, #0xc0
  4014dc:	d61f0220 	br	x17

00000000004014e0 <memmove@plt>:
  4014e0:	900000b0 	adrp	x16, 415000 <_ZNSo3putEc@GLIBCXX_3.4>
  4014e4:	f9406611 	ldr	x17, [x16, #200]
  4014e8:	91032210 	add	x16, x16, #0xc8
  4014ec:	d61f0220 	br	x17

00000000004014f0 <_ZSt16__throw_bad_castv@plt>:
  4014f0:	900000b0 	adrp	x16, 415000 <_ZNSo3putEc@GLIBCXX_3.4>
  4014f4:	f9406a11 	ldr	x17, [x16, #208]
  4014f8:	91034210 	add	x16, x16, #0xd0
  4014fc:	d61f0220 	br	x17

0000000000401500 <__errno_location@plt>:
  401500:	900000b0 	adrp	x16, 415000 <_ZNSo3putEc@GLIBCXX_3.4>
  401504:	f9406e11 	ldr	x17, [x16, #216]
  401508:	91036210 	add	x16, x16, #0xd8
  40150c:	d61f0220 	br	x17

0000000000401510 <sin@plt>:
  401510:	900000b0 	adrp	x16, 415000 <_ZNSo3putEc@GLIBCXX_3.4>
  401514:	f9407211 	ldr	x17, [x16, #224]
  401518:	91038210 	add	x16, x16, #0xe0
  40151c:	d61f0220 	br	x17

0000000000401520 <_ZSt20__throw_out_of_rangePKc@plt>:
  401520:	900000b0 	adrp	x16, 415000 <_ZNSo3putEc@GLIBCXX_3.4>
  401524:	f9407611 	ldr	x17, [x16, #232]
  401528:	9103a210 	add	x16, x16, #0xe8
  40152c:	d61f0220 	br	x17

0000000000401530 <GOMP_parallel@plt>:
  401530:	900000b0 	adrp	x16, 415000 <_ZNSo3putEc@GLIBCXX_3.4>
  401534:	f9407a11 	ldr	x17, [x16, #240]
  401538:	9103c210 	add	x16, x16, #0xf0
  40153c:	d61f0220 	br	x17

0000000000401540 <_ZNSt8ios_base4InitC1Ev@plt>:
  401540:	900000b0 	adrp	x16, 415000 <_ZNSo3putEc@GLIBCXX_3.4>
  401544:	f9407e11 	ldr	x17, [x16, #248]
  401548:	9103e210 	add	x16, x16, #0xf8
  40154c:	d61f0220 	br	x17

0000000000401550 <abort@plt>:
  401550:	900000b0 	adrp	x16, 415000 <_ZNSo3putEc@GLIBCXX_3.4>
  401554:	f9408211 	ldr	x17, [x16, #256]
  401558:	91040210 	add	x16, x16, #0x100
  40155c:	d61f0220 	br	x17

0000000000401560 <__cxa_end_catch@plt>:
  401560:	900000b0 	adrp	x16, 415000 <_ZNSo3putEc@GLIBCXX_3.4>
  401564:	f9408611 	ldr	x17, [x16, #264]
  401568:	91042210 	add	x16, x16, #0x108
  40156c:	d61f0220 	br	x17

0000000000401570 <__gxx_personality_v0@plt>:
  401570:	900000b0 	adrp	x16, 415000 <_ZNSo3putEc@GLIBCXX_3.4>
  401574:	f9408a11 	ldr	x17, [x16, #272]
  401578:	91044210 	add	x16, x16, #0x110
  40157c:	d61f0220 	br	x17

0000000000401580 <GOMP_loop_end@plt>:
  401580:	900000b0 	adrp	x16, 415000 <_ZNSo3putEc@GLIBCXX_3.4>
  401584:	f9408e11 	ldr	x17, [x16, #280]
  401588:	91046210 	add	x16, x16, #0x118
  40158c:	d61f0220 	br	x17

0000000000401590 <_Unwind_Resume@plt>:
  401590:	900000b0 	adrp	x16, 415000 <_ZNSo3putEc@GLIBCXX_3.4>
  401594:	f9409211 	ldr	x17, [x16, #288]
  401598:	91048210 	add	x16, x16, #0x120
  40159c:	d61f0220 	br	x17

00000000004015a0 <_ZNSt7__cxx1112basic_stringIcSt11char_traitsIcESaIcEE9_M_createERmm@plt>:
  4015a0:	900000b0 	adrp	x16, 415000 <_ZNSo3putEc@GLIBCXX_3.4>
  4015a4:	f9409611 	ldr	x17, [x16, #296]
  4015a8:	9104a210 	add	x16, x16, #0x128
  4015ac:	d61f0220 	br	x17

00000000004015b0 <omp_get_num_threads@plt>:
  4015b0:	900000b0 	adrp	x16, 415000 <_ZNSo3putEc@GLIBCXX_3.4>
  4015b4:	f9409a11 	ldr	x17, [x16, #304]
  4015b8:	9104c210 	add	x16, x16, #0x130
  4015bc:	d61f0220 	br	x17

00000000004015c0 <__gmon_start__@plt>:
  4015c0:	900000b0 	adrp	x16, 415000 <_ZNSo3putEc@GLIBCXX_3.4>
  4015c4:	f9409e11 	ldr	x17, [x16, #312]
  4015c8:	9104e210 	add	x16, x16, #0x138
  4015cc:	d61f0220 	br	x17

00000000004015d0 <omp_set_dynamic@plt>:
  4015d0:	900000b0 	adrp	x16, 415000 <_ZNSo3putEc@GLIBCXX_3.4>
  4015d4:	f940a211 	ldr	x17, [x16, #320]
  4015d8:	91050210 	add	x16, x16, #0x140
  4015dc:	d61f0220 	br	x17

00000000004015e0 <GOMP_loop_ull_nonmonotonic_dynamic_next@plt>:
  4015e0:	900000b0 	adrp	x16, 415000 <_ZNSo3putEc@GLIBCXX_3.4>
  4015e4:	f940a611 	ldr	x17, [x16, #328]
  4015e8:	91052210 	add	x16, x16, #0x148
  4015ec:	d61f0220 	br	x17

00000000004015f0 <printf@plt>:
  4015f0:	900000b0 	adrp	x16, 415000 <_ZNSo3putEc@GLIBCXX_3.4>
  4015f4:	f940aa11 	ldr	x17, [x16, #336]
  4015f8:	91054210 	add	x16, x16, #0x150
  4015fc:	d61f0220 	br	x17

0000000000401600 <_ZNSt8ios_base4InitD1Ev@plt>:
  401600:	900000b0 	adrp	x16, 415000 <_ZNSo3putEc@GLIBCXX_3.4>
  401604:	f940ae11 	ldr	x17, [x16, #344]
  401608:	91056210 	add	x16, x16, #0x158
  40160c:	d61f0220 	br	x17

Disassembly of section .text:

0000000000401620 <main>:
  401620:	a9b57bfd 	stp	x29, x30, [sp, #-176]!
  401624:	910003fd 	mov	x29, sp
  401628:	910223e2 	add	x2, sp, #0x88
  40162c:	910243e0 	add	x0, sp, #0x90
  401630:	a90153f3 	stp	x19, x20, [sp, #16]
  401634:	aa0103f4 	mov	x20, x1
  401638:	f9400421 	ldr	x1, [x1, #8]
  40163c:	a9025bf5 	stp	x21, x22, [sp, #32]
  401640:	a90363f7 	stp	x23, x24, [sp, #48]
  401644:	a9046bf9 	stp	x25, x26, [sp, #64]
  401648:	f9002bfb 	str	x27, [sp, #80]
  40164c:	fd002fec 	str	d12, [sp, #88]
  401650:	6d0627e8 	stp	d8, d9, [sp, #96]
  401654:	6d072fea 	stp	d10, d11, [sp, #112]
  401658:	94000a6a 	bl	404000 <_ZNSt7__cxx1112basic_stringIcSt11char_traitsIcESaIcEEC1IS3_EEPKcRKS3_>
  40165c:	f0000016 	adrp	x22, 404000 <_ZNSt7__cxx1112basic_stringIcSt11char_traitsIcESaIcEEC1IS3_EEPKcRKS3_>
  401660:	90000015 	adrp	x21, 401000 <_init-0x310>
  401664:	f9404be2 	ldr	x2, [sp, #144]
  401668:	910dc2d9 	add	x25, x22, #0x370
  40166c:	910f02ba 	add	x26, x21, #0x3c0
  401670:	aa1903e1 	mov	x1, x25
  401674:	aa1a03e0 	mov	x0, x26
  401678:	52800144 	mov	w4, #0xa                   	// #10
  40167c:	d2800003 	mov	x3, #0x0                   	// #0
  401680:	94000a30 	bl	403f40 <_ZN9__gnu_cxx6__stoaIlicJiEEET0_PFT_PKT1_PPS3_DpT2_EPKcS5_PmS9_>
  401684:	f9404be2 	ldr	x2, [sp, #144]
  401688:	900000b8 	adrp	x24, 415000 <_ZNSo3putEc@GLIBCXX_3.4>
  40168c:	93407c01 	sxtw	x1, w0
  401690:	910a4313 	add	x19, x24, #0x290
  401694:	910283f7 	add	x23, sp, #0xa0
  401698:	f9000a61 	str	x1, [x19, #16]
  40169c:	eb17005f 	cmp	x2, x23
  4016a0:	540000a0 	b.eq	4016b4 <main+0x94>  // b.none
  4016a4:	f94053e3 	ldr	x3, [sp, #160]
  4016a8:	aa0203e0 	mov	x0, x2
  4016ac:	91000461 	add	x1, x3, #0x1
  4016b0:	97ffff74 	bl	401480 <_ZdlPvm@plt>
  4016b4:	910223e2 	add	x2, sp, #0x88
  4016b8:	910243e0 	add	x0, sp, #0x90
  4016bc:	f9400a81 	ldr	x1, [x20, #16]
  4016c0:	94000a50 	bl	404000 <_ZNSt7__cxx1112basic_stringIcSt11char_traitsIcESaIcEEC1IS3_EEPKcRKS3_>
  4016c4:	52800144 	mov	w4, #0xa                   	// #10
  4016c8:	d2800003 	mov	x3, #0x0                   	// #0
  4016cc:	f9404be2 	ldr	x2, [sp, #144]
  4016d0:	aa1903e1 	mov	x1, x25
  4016d4:	aa1a03e0 	mov	x0, x26
  4016d8:	94000a1a 	bl	403f40 <_ZN9__gnu_cxx6__stoaIlicJiEEET0_PFT_PKT1_PPS3_DpT2_EPKcS5_PmS9_>
  4016dc:	f9404be4 	ldr	x4, [sp, #144]
  4016e0:	93407c00 	sxtw	x0, w0
  4016e4:	f9000660 	str	x0, [x19, #8]
  4016e8:	eb17009f 	cmp	x4, x23
  4016ec:	540000a0 	b.eq	401700 <main+0xe0>  // b.none
  4016f0:	f94053e5 	ldr	x5, [sp, #160]
  4016f4:	aa0403e0 	mov	x0, x4
  4016f8:	910004a1 	add	x1, x5, #0x1
  4016fc:	97ffff61 	bl	401480 <_ZdlPvm@plt>
  401700:	910223e2 	add	x2, sp, #0x88
  401704:	910243e0 	add	x0, sp, #0x90
  401708:	f9400e81 	ldr	x1, [x20, #24]
  40170c:	94000a3d 	bl	404000 <_ZNSt7__cxx1112basic_stringIcSt11char_traitsIcESaIcEEC1IS3_EEPKcRKS3_>
  401710:	52800144 	mov	w4, #0xa                   	// #10
  401714:	d2800003 	mov	x3, #0x0                   	// #0
  401718:	f9404be2 	ldr	x2, [sp, #144]
  40171c:	aa1903e1 	mov	x1, x25
  401720:	aa1a03e0 	mov	x0, x26
  401724:	94000a07 	bl	403f40 <_ZN9__gnu_cxx6__stoaIlicJiEEET0_PFT_PKT1_PPS3_DpT2_EPKcS5_PmS9_>
  401728:	f9404be7 	ldr	x7, [sp, #144]
  40172c:	93407c06 	sxtw	x6, w0
  401730:	f9014b06 	str	x6, [x24, #656]
  401734:	eb1700ff 	cmp	x7, x23
  401738:	540000a0 	b.eq	40174c <main+0x12c>  // b.none
  40173c:	f94053e8 	ldr	x8, [sp, #160]
  401740:	aa0703e0 	mov	x0, x7
  401744:	91000501 	add	x1, x8, #0x1
  401748:	97ffff4e 	bl	401480 <_ZdlPvm@plt>
  40174c:	910223e2 	add	x2, sp, #0x88
  401750:	910243e0 	add	x0, sp, #0x90
  401754:	f9401281 	ldr	x1, [x20, #32]
  401758:	94000a2a 	bl	404000 <_ZNSt7__cxx1112basic_stringIcSt11char_traitsIcESaIcEEC1IS3_EEPKcRKS3_>
  40175c:	aa1903e1 	mov	x1, x25
  401760:	aa1a03e0 	mov	x0, x26
  401764:	f9404be2 	ldr	x2, [sp, #144]
  401768:	52800144 	mov	w4, #0xa                   	// #10
  40176c:	d2800003 	mov	x3, #0x0                   	// #0
  401770:	940009f4 	bl	403f40 <_ZN9__gnu_cxx6__stoaIlicJiEEET0_PFT_PKT1_PPS3_DpT2_EPKcS5_PmS9_>
  401774:	f9404bea 	ldr	x10, [sp, #144]
  401778:	93407c09 	sxtw	x9, w0
  40177c:	f9004669 	str	x9, [x19, #136]
  401780:	eb17015f 	cmp	x10, x23
  401784:	540000a0 	b.eq	401798 <main+0x178>  // b.none
  401788:	f94053eb 	ldr	x11, [sp, #160]
  40178c:	aa0a03e0 	mov	x0, x10
  401790:	91000561 	add	x1, x11, #0x1
  401794:	97ffff3b 	bl	401480 <_ZdlPvm@plt>
  401798:	a940be6e 	ldp	x14, x15, [x19, #8]
  40179c:	f9414b0c 	ldr	x12, [x24, #656]
  4017a0:	910041d0 	add	x16, x14, #0x10
  4017a4:	910041f1 	add	x17, x15, #0x10
  4017a8:	9b107e32 	mul	x18, x17, x16
  4017ac:	f9001671 	str	x17, [x19, #40]
  4017b0:	9100418d 	add	x13, x12, #0x10
  4017b4:	f9001272 	str	x18, [x19, #32]
  4017b8:	9b127db4 	mul	x20, x13, x18
  4017bc:	a907c26d 	stp	x13, x16, [x19, #120]
  4017c0:	f9003a74 	str	x20, [x19, #112]
  4017c4:	940007c7 	bl	4036e0 <_Z4initv>
  4017c8:	f9404677 	ldr	x23, [x19, #136]
  4017cc:	b4000a17 	cbz	x23, 40190c <main+0x2ec>
  4017d0:	d2d0901b 	mov	x27, #0x848000000000        	// #145685290680320
  4017d4:	d2c8001e 	mov	x30, #0x400000000000        	// #70368744177664
  4017d8:	f2e825db 	movk	x27, #0x412e, lsl #48
  4017dc:	f2e811fe 	movk	x30, #0x408f, lsl #48
  4017e0:	90000016 	adrp	x22, 401000 <_init-0x310>
  4017e4:	f0000015 	adrp	x21, 404000 <_ZNSt7__cxx1112basic_stringIcSt11char_traitsIcESaIcEEC1IS3_EEPKcRKS3_>
  4017e8:	9e670369 	fmov	d9, x27
  4017ec:	f0000001 	adrp	x1, 404000 <_ZNSt7__cxx1112basic_stringIcSt11char_traitsIcESaIcEEC1IS3_EEPKcRKS3_>
  4017f0:	f0000018 	adrp	x24, 404000 <_ZNSt7__cxx1112basic_stringIcSt11char_traitsIcESaIcEEC1IS3_EEPKcRKS3_>
  4017f4:	9e6703ca 	fmov	d10, x30
  4017f8:	912f82da 	add	x26, x22, #0xbe0
  4017fc:	910de2b9 	add	x25, x21, #0x378
  401800:	910e0034 	add	x20, x1, #0x380
  401804:	910e4318 	add	x24, x24, #0x390
  401808:	d2800015 	mov	x21, #0x0                   	// #0
  40180c:	91016277 	add	x23, x19, #0x58
  401810:	91018276 	add	x22, x19, #0x60
  401814:	d503201f 	nop
  401818:	d503201f 	nop
  40181c:	d503201f 	nop
  401820:	aa1703e1 	mov	x1, x23
  401824:	aa1603e0 	mov	x0, x22
  401828:	97ffff06 	bl	401440 <gettimeofday@plt>
  40182c:	6d46326b 	ldp	d11, d12, [x19, #96]
  401830:	52800003 	mov	w3, #0x0                   	// #0
  401834:	52800002 	mov	w2, #0x0                   	// #0
  401838:	d2800001 	mov	x1, #0x0                   	// #0
  40183c:	aa1a03e0 	mov	x0, x26
  401840:	d280001b 	mov	x27, #0x0                   	// #0
  401844:	5e61d960 	scvtf	d0, d11
  401848:	5e61d98c 	scvtf	d12, d12
  40184c:	1e69080b 	fmul	d11, d0, d9
  401850:	97ffff38 	bl	401530 <GOMP_parallel@plt>
  401854:	aa1703e1 	mov	x1, x23
  401858:	aa1603e0 	mov	x0, x22
  40185c:	97fffef9 	bl	401440 <gettimeofday@plt>
  401860:	6d462261 	ldp	d1, d8, [x19, #96]
  401864:	aa1903e0 	mov	x0, x25
  401868:	5e61d822 	scvtf	d2, d1
  40186c:	5e61d908 	scvtf	d8, d8
  401870:	1f69b04c 	fnmsub	d12, d2, d9, d12
  401874:	97ffff5f 	bl	4015f0 <printf@plt>
  401878:	a9401a62 	ldp	x2, x6, [x19]
  40187c:	aa1403e0 	mov	x0, x20
  401880:	a9421664 	ldp	x4, x5, [x19, #32]
  401884:	d341fc47 	lsr	x7, x2, #1
  401888:	d341fcca 	lsr	x10, x6, #1
  40188c:	910020e8 	add	x8, x7, #0x8
  401890:	9100214b 	add	x11, x10, #0x8
  401894:	8b1b0109 	add	x9, x8, x27
  401898:	8b1b016d 	add	x13, x11, x27
  40189c:	f9400a63 	ldr	x3, [x19, #16]
  4018a0:	9b046d2c 	madd	x12, x9, x4, x27
  4018a4:	f9400e71 	ldr	x17, [x19, #24]
  4018a8:	9100077b 	add	x27, x27, #0x1
  4018ac:	9b0531ae 	madd	x14, x13, x5, x12
  4018b0:	8b4305cf 	add	x15, x14, x3, lsr #1
  4018b4:	910021f0 	add	x16, x15, #0x8
  4018b8:	fc707a20 	ldr	d0, [x17, x16, lsl #3]
  4018bc:	97ffff4d 	bl	4015f0 <printf@plt>
  4018c0:	f100177f 	cmp	x27, #0x5
  4018c4:	54fffda1 	b.ne	401878 <main+0x258>  // b.any
  4018c8:	a9400a63 	ldp	x3, x2, [x19]
  4018cc:	1e6c2903 	fadd	d3, d8, d12
  4018d0:	aa1803e0 	mov	x0, x24
  4018d4:	910006b5 	add	x21, x21, #0x1
  4018d8:	f9400a61 	ldr	x1, [x19, #16]
  4018dc:	9e630044 	ucvtf	d4, x2
  4018e0:	9e630067 	ucvtf	d7, x3
  4018e4:	1e6b3860 	fsub	d0, d3, d11
  4018e8:	9e630026 	ucvtf	d6, x1
  4018ec:	1e6a0805 	fmul	d5, d0, d10
  4018f0:	1e6408d0 	fmul	d16, d6, d4
  4018f4:	1e670a11 	fmul	d17, d16, d7
  4018f8:	1e7118a1 	fdiv	d1, d5, d17
  4018fc:	97ffff3d 	bl	4015f0 <printf@plt>
  401900:	f9404660 	ldr	x0, [x19, #136]
  401904:	eb15001f 	cmp	x0, x21
  401908:	54fff8c8 	b.hi	401820 <main+0x200>  // b.pmore
  40190c:	f9400e60 	ldr	x0, [x19, #24]
  401910:	97fffeb8 	bl	4013f0 <free@plt>
  401914:	f9401a60 	ldr	x0, [x19, #48]
  401918:	97fffeb6 	bl	4013f0 <free@plt>
  40191c:	f9401e60 	ldr	x0, [x19, #56]
  401920:	97fffeb4 	bl	4013f0 <free@plt>
  401924:	52800000 	mov	w0, #0x0                   	// #0
  401928:	a94153f3 	ldp	x19, x20, [sp, #16]
  40192c:	a9425bf5 	ldp	x21, x22, [sp, #32]
  401930:	a94363f7 	ldp	x23, x24, [sp, #48]
  401934:	a9446bf9 	ldp	x25, x26, [sp, #64]
  401938:	f9402bfb 	ldr	x27, [sp, #80]
  40193c:	fd402fec 	ldr	d12, [sp, #88]
  401940:	6d4627e8 	ldp	d8, d9, [sp, #96]
  401944:	6d472fea 	ldp	d10, d11, [sp, #112]
  401948:	a8cb7bfd 	ldp	x29, x30, [sp], #176
  40194c:	d65f03c0 	ret
  401950:	aa0003f3 	mov	x19, x0
  401954:	aa1303e0 	mov	x0, x19
  401958:	900000ba 	adrp	x26, 415000 <_ZNSo3putEc@GLIBCXX_3.4>
  40195c:	97fffe8d 	bl	401390 <__cxa_begin_catch@plt>
  401960:	9105e340 	add	x0, x26, #0x178
  401964:	f9400281 	ldr	x1, [x20]
  401968:	97fffebe 	bl	401460 <_ZStlsISt11char_traitsIcEERSt13basic_ostreamIcT_ES5_PKc@plt>
  40196c:	f0000019 	adrp	x25, 404000 <_ZNSt7__cxx1112basic_stringIcSt11char_traitsIcESaIcEEC1IS3_EEPKcRKS3_>
  401970:	d2800302 	mov	x2, #0x18                  	// #24
  401974:	910ee321 	add	x1, x25, #0x3b8
  401978:	aa0003f4 	mov	x20, x0
  40197c:	97fffed1 	bl	4014c0 <_ZSt16__ostream_insertIcSt11char_traitsIcEERSt13basic_ostreamIT_T0_ES6_PKS3_l@plt>
  401980:	f9400298 	ldr	x24, [x20]
  401984:	f85e8317 	ldur	x23, [x24, #-24]
  401988:	8b170296 	add	x22, x20, x23
  40198c:	f9407adb 	ldr	x27, [x22, #240]
  401990:	b50002fb 	cbnz	x27, 4019ec <main+0x3cc>
  401994:	97fffed7 	bl	4014f0 <_ZSt16__throw_bad_castv@plt>
  401998:	f9404bf2 	ldr	x18, [sp, #144]
  40199c:	aa0003f3 	mov	x19, x0
  4019a0:	eb17025f 	cmp	x18, x23
  4019a4:	54fffd80 	b.eq	401954 <main+0x334>  // b.none
  4019a8:	f94053e1 	ldr	x1, [sp, #160]
  4019ac:	aa1203e0 	mov	x0, x18
  4019b0:	91000421 	add	x1, x1, #0x1
  4019b4:	97fffeb3 	bl	401480 <_ZdlPvm@plt>
  4019b8:	17ffffe7 	b	401954 <main+0x334>
  4019bc:	17fffff7 	b	401998 <main+0x378>
  4019c0:	17fffff6 	b	401998 <main+0x378>
  4019c4:	f9404bf2 	ldr	x18, [sp, #144]
  4019c8:	910283fe 	add	x30, sp, #0xa0
  4019cc:	aa0003f3 	mov	x19, x0
  4019d0:	eb1e025f 	cmp	x18, x30
  4019d4:	54fffea1 	b.ne	4019a8 <main+0x388>  // b.any
  4019d8:	17ffffdf 	b	401954 <main+0x334>
  4019dc:	aa0003f5 	mov	x21, x0
  4019e0:	97fffee0 	bl	401560 <__cxa_end_catch@plt>
  4019e4:	aa1503e0 	mov	x0, x21
  4019e8:	97fffeea 	bl	401590 <_Unwind_Resume@plt>
  4019ec:	3940e362 	ldrb	w2, [x27, #56]
  4019f0:	350001e2 	cbnz	w2, 401a2c <main+0x40c>
  4019f4:	aa1b03e0 	mov	x0, x27
  4019f8:	97fffeb6 	bl	4014d0 <_ZNKSt5ctypeIcE13_M_widen_initEv@plt>
  4019fc:	f9400366 	ldr	x6, [x27]
  401a00:	aa1b03e0 	mov	x0, x27
  401a04:	52800141 	mov	w1, #0xa                   	// #10
  401a08:	f94018c3 	ldr	x3, [x6, #48]
  401a0c:	d63f0060 	blr	x3
  401a10:	12001c01 	and	w1, w0, #0xff
  401a14:	aa1403e0 	mov	x0, x20
  401a18:	97fffe4e 	bl	401350 <_ZNSo3putEc@plt>
  401a1c:	97fffe81 	bl	401420 <_ZNSo5flushEv@plt>
  401a20:	97fffed0 	bl	401560 <__cxa_end_catch@plt>
  401a24:	12800000 	mov	w0, #0xffffffff            	// #-1
  401a28:	17ffffc0 	b	401928 <main+0x308>
  401a2c:	39410f61 	ldrb	w1, [x27, #67]
  401a30:	17fffff9 	b	401a14 <main+0x3f4>
  401a34:	d503201f 	nop
  401a38:	d503201f 	nop
  401a3c:	d503201f 	nop

0000000000401a40 <_GLOBAL__sub_I__Z10dml_microsv>:
  401a40:	a9bd7bfd 	stp	x29, x30, [sp, #-48]!
  401a44:	910003fd 	mov	x29, sp
  401a48:	a90153f3 	stp	x19, x20, [sp, #16]
  401a4c:	900000b3 	adrp	x19, 415000 <_ZNSo3putEc@GLIBCXX_3.4>
  401a50:	900000b4 	adrp	x20, 415000 <_ZNSo3putEc@GLIBCXX_3.4>
  401a54:	910a4273 	add	x19, x19, #0x290
  401a58:	9105a294 	add	x20, x20, #0x168
  401a5c:	f90013f5 	str	x21, [sp, #32]
  401a60:	91024275 	add	x21, x19, #0x90
  401a64:	aa1503e0 	mov	x0, x21
  401a68:	97fffeb6 	bl	401540 <_ZNSt8ios_base4InitC1Ev@plt>
  401a6c:	90000000 	adrp	x0, 401000 <_init-0x310>
  401a70:	aa1503e1 	mov	x1, x21
  401a74:	aa1403e2 	mov	x2, x20
  401a78:	91180000 	add	x0, x0, #0x600
  401a7c:	97fffe8d 	bl	4014b0 <__cxa_atexit@plt>
  401a80:	91010261 	add	x1, x19, #0x40
  401a84:	d0000003 	adrp	x3, 403000 <_Z13one_iterationv._omp_fn.0+0x1420>
  401a88:	f900227f 	str	xzr, [x19, #64]
  401a8c:	aa1403e2 	mov	x2, x20
  401a90:	913c8060 	add	x0, x3, #0xf20
  401a94:	a94153f3 	ldp	x19, x20, [sp, #16]
  401a98:	f94013f5 	ldr	x21, [sp, #32]
  401a9c:	a900fc3f 	stp	xzr, xzr, [x1, #8]
  401aa0:	a8c37bfd 	ldp	x29, x30, [sp], #48
  401aa4:	17fffe83 	b	4014b0 <__cxa_atexit@plt>
  401aa8:	d503201f 	nop
  401aac:	d503201f 	nop

0000000000401ab0 <set_fast_math>:
  401ab0:	52a02000 	mov	w0, #0x1000000             	// #16777216
  401ab4:	d51b4400 	msr	fpcr, x0
  401ab8:	d65f03c0 	ret
  401abc:	d503201f 	nop

0000000000401ac0 <_start>:
  401ac0:	d280001d 	mov	x29, #0x0                   	// #0
  401ac4:	d280001e 	mov	x30, #0x0                   	// #0
  401ac8:	aa0003e5 	mov	x5, x0
  401acc:	f94003e1 	ldr	x1, [sp]
  401ad0:	910023e2 	add	x2, sp, #0x8
  401ad4:	910003e6 	mov	x6, sp
  401ad8:	580000c0 	ldr	x0, 401af0 <_start+0x30>
  401adc:	580000e3 	ldr	x3, 401af8 <_start+0x38>
  401ae0:	58000104 	ldr	x4, 401b00 <_start+0x40>
  401ae4:	97fffe5b 	bl	401450 <__libc_start_main@plt>
  401ae8:	97fffe9a 	bl	401550 <abort@plt>
  401aec:	00000000 	udf	#0
  401af0:	00401620 	.inst	0x00401620 ; undefined
  401af4:	00000000 	udf	#0
  401af8:	00404220 	.inst	0x00404220 ; undefined
  401afc:	00000000 	udf	#0
  401b00:	004042a0 	.inst	0x004042a0 ; undefined
  401b04:	00000000 	udf	#0

0000000000401b08 <call_weak_fn>:
  401b08:	f0000080 	adrp	x0, 414000 <__FRAME_END__+0xf724>
  401b0c:	f947f000 	ldr	x0, [x0, #4064]
  401b10:	b4000040 	cbz	x0, 401b18 <call_weak_fn+0x10>
  401b14:	17fffeab 	b	4015c0 <__gmon_start__@plt>
  401b18:	d65f03c0 	ret
  401b1c:	d503201f 	nop

0000000000401b20 <deregister_tm_clones>:
  401b20:	900000a0 	adrp	x0, 415000 <_ZNSo3putEc@GLIBCXX_3.4>
  401b24:	9105e000 	add	x0, x0, #0x178
  401b28:	900000a1 	adrp	x1, 415000 <_ZNSo3putEc@GLIBCXX_3.4>
  401b2c:	9105e021 	add	x1, x1, #0x178
  401b30:	eb00003f 	cmp	x1, x0
  401b34:	540000c0 	b.eq	401b4c <deregister_tm_clones+0x2c>  // b.none
  401b38:	f0000001 	adrp	x1, 404000 <_ZNSt7__cxx1112basic_stringIcSt11char_traitsIcESaIcEEC1IS3_EEPKcRKS3_>
  401b3c:	f9416021 	ldr	x1, [x1, #704]
  401b40:	b4000061 	cbz	x1, 401b4c <deregister_tm_clones+0x2c>
  401b44:	aa0103f0 	mov	x16, x1
  401b48:	d61f0200 	br	x16
  401b4c:	d65f03c0 	ret

0000000000401b50 <register_tm_clones>:
  401b50:	900000a0 	adrp	x0, 415000 <_ZNSo3putEc@GLIBCXX_3.4>
  401b54:	9105e000 	add	x0, x0, #0x178
  401b58:	900000a1 	adrp	x1, 415000 <_ZNSo3putEc@GLIBCXX_3.4>
  401b5c:	9105e021 	add	x1, x1, #0x178
  401b60:	cb000021 	sub	x1, x1, x0
  401b64:	d37ffc22 	lsr	x2, x1, #63
  401b68:	8b810c41 	add	x1, x2, x1, asr #3
  401b6c:	9341fc21 	asr	x1, x1, #1
  401b70:	b40000c1 	cbz	x1, 401b88 <register_tm_clones+0x38>
  401b74:	f0000002 	adrp	x2, 404000 <_ZNSt7__cxx1112basic_stringIcSt11char_traitsIcESaIcEEC1IS3_EEPKcRKS3_>
  401b78:	f9416442 	ldr	x2, [x2, #712]
  401b7c:	b4000062 	cbz	x2, 401b88 <register_tm_clones+0x38>
  401b80:	aa0203f0 	mov	x16, x2
  401b84:	d61f0200 	br	x16
  401b88:	d65f03c0 	ret
  401b8c:	d503201f 	nop

0000000000401b90 <__do_global_dtors_aux>:
  401b90:	a9be7bfd 	stp	x29, x30, [sp, #-32]!
  401b94:	910003fd 	mov	x29, sp
  401b98:	f9000bf3 	str	x19, [sp, #16]
  401b9c:	900000b3 	adrp	x19, 415000 <_ZNSo3putEc@GLIBCXX_3.4>
  401ba0:	394a2260 	ldrb	w0, [x19, #648]
  401ba4:	35000080 	cbnz	w0, 401bb4 <__do_global_dtors_aux+0x24>
  401ba8:	97ffffde 	bl	401b20 <deregister_tm_clones>
  401bac:	52800020 	mov	w0, #0x1                   	// #1
  401bb0:	390a2260 	strb	w0, [x19, #648]
  401bb4:	f9400bf3 	ldr	x19, [sp, #16]
  401bb8:	a8c27bfd 	ldp	x29, x30, [sp], #32
  401bbc:	d65f03c0 	ret

0000000000401bc0 <frame_dummy>:
  401bc0:	17ffffe4 	b	401b50 <register_tm_clones>
  401bc4:	d503201f 	nop
  401bc8:	d503201f 	nop
  401bcc:	d503201f 	nop
  401bd0:	d503201f 	nop
  401bd4:	d503201f 	nop
  401bd8:	d503201f 	nop
  401bdc:	d503201f 	nop

0000000000401be0 <_Z13one_iterationv._omp_fn.0>:
  401be0:	d11583ff 	sub	sp, sp, #0x560
  401be4:	52800000 	mov	w0, #0x0                   	// #0
  401be8:	a9007bfd 	stp	x29, x30, [sp]
  401bec:	910003fd 	mov	x29, sp
  401bf0:	97fffe78 	bl	4015d0 <omp_set_dynamic@plt>
  401bf4:	97fffe6f 	bl	4015b0 <omp_get_num_threads@plt>
  401bf8:	97fffe2a 	bl	4014a0 <omp_set_num_threads@plt>
  401bfc:	d2800024 	mov	x4, #0x1                   	// #1
  401c00:	900000a0 	adrp	x0, 415000 <_ZNSo3putEc@GLIBCXX_3.4>
  401c04:	f9414802 	ldr	x2, [x0, #656]
  401c08:	911523e6 	add	x6, sp, #0x548
  401c0c:	911503e5 	add	x5, sp, #0x540
  401c10:	aa0403e3 	mov	x3, x4
  401c14:	2a0403e0 	mov	w0, w4
  401c18:	d2800001 	mov	x1, #0x0                   	// #0
  401c1c:	97fffe1d 	bl	401490 <GOMP_loop_ull_nonmonotonic_dynamic_start@plt>
  401c20:	72001c1f 	tst	w0, #0xff
  401c24:	54008380 	b.eq	402c94 <_Z13one_iterationv._omp_fn.0+0x10b4>  // b.none
  401c28:	a90153f3 	stp	x19, x20, [sp, #16]
  401c2c:	a9025bf5 	stp	x21, x22, [sp, #32]
  401c30:	a90363f7 	stp	x23, x24, [sp, #48]
  401c34:	a9046bf9 	stp	x25, x26, [sp, #64]
  401c38:	a90573fb 	stp	x27, x28, [sp, #80]
  401c3c:	6d0627e8 	stp	d8, d9, [sp, #96]
  401c40:	900000a1 	adrp	x1, 415000 <_ZNSo3putEc@GLIBCXX_3.4>
  401c44:	900000a3 	adrp	x3, 415000 <_ZNSo3putEc@GLIBCXX_3.4>
  401c48:	f942a3ea 	ldr	x10, [sp, #1344]
  401c4c:	900000a4 	adrp	x4, 415000 <_ZNSo3putEc@GLIBCXX_3.4>
  401c50:	900000af 	adrp	x15, 415000 <_ZNSo3putEc@GLIBCXX_3.4>
  401c54:	910a4022 	add	x2, x1, #0x290
  401c58:	910a4066 	add	x6, x3, #0x290
  401c5c:	f942a7ec 	ldr	x12, [sp, #1352]
  401c60:	910a4087 	add	x7, x4, #0x290
  401c64:	910a41f0 	add	x16, x15, #0x290
  401c68:	f9400449 	ldr	x9, [x2, #8]
  401c6c:	900000a5 	adrp	x5, 415000 <_ZNSo3putEc@GLIBCXX_3.4>
  401c70:	900000b2 	adrp	x18, 415000 <_ZNSo3putEc@GLIBCXX_3.4>
  401c74:	900000b4 	adrp	x20, 415000 <_ZNSo3putEc@GLIBCXX_3.4>
  401c78:	900000b6 	adrp	x22, 415000 <_ZNSo3putEc@GLIBCXX_3.4>
  401c7c:	f90207ea 	str	x10, [sp, #1032]
  401c80:	f9400ccb 	ldr	x11, [x6, #24]
  401c84:	910a40a8 	add	x8, x5, #0x290
  401c88:	910a4253 	add	x19, x18, #0x290
  401c8c:	910a4295 	add	x21, x20, #0x290
  401c90:	910a42d7 	add	x23, x22, #0x290
  401c94:	f90217ec 	str	x12, [sp, #1064]
  401c98:	f94018ee 	ldr	x14, [x7, #48]
  401c9c:	f901fbe9 	str	x9, [sp, #1008]
  401ca0:	f9401e11 	ldr	x17, [x16, #56]
  401ca4:	f9400a7e 	ldr	x30, [x19, #16]
  401ca8:	a9073beb 	stp	x11, x14, [sp, #112]
  401cac:	f90213f1 	str	x17, [sp, #1056]
  401cb0:	f94012a6 	ldr	x6, [x21, #32]
  401cb4:	f94016e1 	ldr	x1, [x23, #40]
  401cb8:	f9402119 	ldr	x25, [x8, #64]
  401cbc:	b4007d69 	cbz	x9, 402c68 <_Z13one_iterationv._omp_fn.0+0x1088>
  401cc0:	b4007d5e 	cbz	x30, 402c68 <_Z13one_iterationv._omp_fn.0+0x1088>
  401cc4:	9100215b 	add	x27, x10, #0x8
  401cc8:	d37df0d2 	lsl	x18, x6, #3
  401ccc:	25fe1fe2 	whilelo	p2.d, xzr, x30
  401cd0:	d37ff8c3 	lsl	x3, x6, #1
  401cd4:	d37df03a 	lsl	x26, x1, #3
  401cd8:	f90157fe 	str	x30, [sp, #680]
  401cdc:	9b1b7cc9 	mul	x9, x6, x27
  401ce0:	8b01034e 	add	x14, x26, x1
  401ce4:	d37ff835 	lsl	x21, x1, #1
  401ce8:	9b127f60 	mul	x0, x27, x18
  401cec:	8b060064 	add	x4, x3, x6
  401cf0:	8b0102a8 	add	x8, x21, x1
  401cf4:	d37ef436 	lsl	x22, x1, #2
  401cf8:	d37ff882 	lsl	x2, x4, #1
  401cfc:	9b06695b 	madd	x27, x10, x6, x26
  401d00:	8b0900c7 	add	x7, x6, x9
  401d04:	8b0102d7 	add	x23, x22, x1
  401d08:	f9021bf2 	str	x18, [sp, #1072]
  401d0c:	cb0300ec 	sub	x12, x7, x3
  401d10:	8b07034b 	add	x11, x26, x7
  401d14:	f90057e0 	str	x0, [sp, #168]
  401d18:	8b0c00cf 	add	x15, x6, x12
  401d1c:	d37ef4c0 	lsl	x0, x6, #2
  401d20:	2518e3e1 	ptrue	p1.b
  401d24:	8b0301ed 	add	x13, x15, x3
  401d28:	a9082fee 	stp	x14, x11, [sp, #128]
  401d2c:	8b0805f0 	add	x16, x15, x8, lsl #1
  401d30:	cb0001ae 	sub	x14, x13, x0
  401d34:	cb060245 	sub	x5, x18, x6
  401d38:	8b1705f3 	add	x19, x15, x23, lsl #1
  401d3c:	8b0301c3 	add	x3, x14, x3
  401d40:	8b060011 	add	x17, x0, x6
  401d44:	25f9ce17 	fmov	z23.d, #1.000000000000000000e+00
  401d48:	8b04006b 	add	x11, x3, x4
  401d4c:	8b0c0346 	add	x6, x26, x12
  401d50:	f9004bf0 	str	x16, [sp, #144]
  401d54:	cb02016f 	sub	x15, x11, x2
  401d58:	d37df0cc 	lsl	x12, x6, #3
  401d5c:	f9005ff3 	str	x19, [sp, #184]
  401d60:	8b0401e6 	add	x6, x15, x4
  401d64:	aa1203fc 	mov	x28, x18
  401d68:	8b0000d0 	add	x16, x6, x0
  401d6c:	8b0b034b 	add	x11, x26, x11
  401d70:	cb120212 	sub	x18, x16, x18
  401d74:	8b100353 	add	x19, x26, x16
  401d78:	8b000240 	add	x0, x18, x0
  401d7c:	8b0f0350 	add	x16, x26, x15
  401d80:	8b02000f 	add	x15, x0, x2
  401d84:	8b0e034e 	add	x14, x26, x14
  401d88:	a90c4feb 	stp	x11, x19, [sp, #192]
  401d8c:	cb0409e4 	sub	x4, x15, x4, lsl #2
  401d90:	8b0d034d 	add	x13, x26, x13
  401d94:	d37ef507 	lsl	x7, x8, #2
  401d98:	8b0100fe 	add	x30, x7, x1
  401d9c:	8b0602d6 	add	x22, x22, x6
  401da0:	8b020082 	add	x2, x4, x2
  401da4:	a909bbed 	stp	x13, x14, [sp, #152]
  401da8:	8b120352 	add	x18, x26, x18
  401dac:	8b05004b 	add	x11, x2, x5
  401db0:	cb010354 	sub	x20, x26, x1
  401db4:	cb05056d 	sub	x13, x11, x5, lsl #1
  401db8:	8b0b034e 	add	x14, x26, x11
  401dbc:	d37cec2a 	lsl	x10, x1, #4
  401dc0:	f9006ffe 	str	x30, [sp, #216]
  401dc4:	cb0100fe 	sub	x30, x7, x1
  401dc8:	8b0600e7 	add	x7, x7, x6
  401dcc:	8b0d00a5 	add	x5, x5, x13
  401dd0:	d37df2c6 	lsl	x6, x22, #3
  401dd4:	f9006bf2 	str	x18, [sp, #208]
  401dd8:	8b040356 	add	x22, x26, x4
  401ddc:	8b1c00a4 	add	x4, x5, x28
  401de0:	f9005bfe 	str	x30, [sp, #176]
  401de4:	8b1a008b 	add	x11, x4, x26
  401de8:	8b110013 	add	x19, x0, x17
  401dec:	8b14041e 	add	x30, x0, x20, lsl #1
  401df0:	d37df17c 	lsl	x28, x11, #3
  401df4:	cb010158 	sub	x24, x10, x1
  401df8:	91010384 	add	x4, x28, #0x40
  401dfc:	f94053fc 	ldr	x28, [sp, #160]
  401e00:	8b0f0352 	add	x18, x26, x15
  401e04:	8b0d034f 	add	x15, x26, x13
  401e08:	8b05014d 	add	x13, x10, x5
  401e0c:	8b09028a 	add	x10, x20, x9
  401e10:	8b130354 	add	x20, x26, x19
  401e14:	d37df293 	lsl	x19, x20, #3
  401e18:	f9406ff4 	ldr	x20, [sp, #216]
  401e1c:	d37df37b 	lsl	x27, x27, #3
  401e20:	8b000108 	add	x8, x8, x0
  401e24:	8b0002b5 	add	x21, x21, x0
  401e28:	d37df39c 	lsl	x28, x28, #3
  401e2c:	cb110011 	sub	x17, x0, x17
  401e30:	8b020021 	add	x1, x1, x2
  401e34:	d37df1eb 	lsl	x11, x15, #3
  401e38:	f90053fc 	str	x28, [sp, #160]
  401e3c:	d37df2cf 	lsl	x15, x22, #3
  401e40:	d37df1b6 	lsl	x22, x13, #3
  401e44:	8b000294 	add	x20, x20, x0
  401e48:	d37df100 	lsl	x0, x8, #3
  401e4c:	f9405be8 	ldr	x8, [sp, #176]
  401e50:	f9005bfb 	str	x27, [sp, #176]
  401e54:	d37df02d 	lsl	x13, x1, #3
  401e58:	8b0302f7 	add	x23, x23, x3
  401e5c:	a94973fb 	ldp	x27, x28, [sp, #144]
  401e60:	910101a1 	add	x1, x13, #0x40
  401e64:	8b020318 	add	x24, x24, x2
  401e68:	8b020342 	add	x2, x26, x2
  401e6c:	910102c5 	add	x5, x22, #0x40
  401e70:	9101016b 	add	x11, x11, #0x40
  401e74:	d37df042 	lsl	x2, x2, #3
  401e78:	8b030108 	add	x8, x8, x3
  401e7c:	d37df2e3 	lsl	x3, x23, #3
  401e80:	f94043ed 	ldr	x13, [sp, #128]
  401e84:	d37df1ce 	lsl	x14, x14, #3
  401e88:	d37df318 	lsl	x24, x24, #3
  401e8c:	d37df39c 	lsl	x28, x28, #3
  401e90:	d37df37b 	lsl	x27, x27, #3
  401e94:	f94063f7 	ldr	x23, [sp, #192]
  401e98:	8b110351 	add	x17, x26, x17
  401e9c:	910101ce 	add	x14, x14, #0x40
  401ea0:	a90973fb 	stp	x27, x28, [sp, #144]
  401ea4:	91010318 	add	x24, x24, #0x40
  401ea8:	d37df210 	lsl	x16, x16, #3
  401eac:	d37df252 	lsl	x18, x18, #3
  401eb0:	d37df3de 	lsl	x30, x30, #3
  401eb4:	8b0901a9 	add	x9, x13, x9
  401eb8:	d37df2ad 	lsl	x13, x21, #3
  401ebc:	f94047fc 	ldr	x28, [sp, #136]
  401ec0:	d37df129 	lsl	x9, x9, #3
  401ec4:	d37df14a 	lsl	x10, x10, #3
  401ec8:	d37df2f7 	lsl	x23, x23, #3
  401ecc:	d37df231 	lsl	x17, x17, #3
  401ed0:	f9405ffb 	ldr	x27, [sp, #184]
  401ed4:	d37df294 	lsl	x20, x20, #3
  401ed8:	d37df0e7 	lsl	x7, x7, #3
  401edc:	910101ef 	add	x15, x15, #0x40
  401ee0:	910103de 	add	x30, x30, #0x40
  401ee4:	f94067f6 	ldr	x22, [sp, #200]
  401ee8:	91010252 	add	x18, x18, #0x40
  401eec:	9101014a 	add	x10, x10, #0x40
  401ef0:	d37df39c 	lsl	x28, x28, #3
  401ef4:	91010210 	add	x16, x16, #0x40
  401ef8:	f9406bf5 	ldr	x21, [sp, #208]
  401efc:	91010273 	add	x19, x19, #0x40
  401f00:	91010231 	add	x17, x17, #0x40
  401f04:	d37df37b 	lsl	x27, x27, #3
  401f08:	91010294 	add	x20, x20, #0x40
  401f0c:	91010000 	add	x0, x0, #0x40
  401f10:	9101018c 	add	x12, x12, #0x40
  401f14:	a9086ffc 	stp	x28, x27, [sp, #128]
  401f18:	d37df2d6 	lsl	x22, x22, #3
  401f1c:	d37df108 	lsl	x8, x8, #3
  401f20:	910102d6 	add	x22, x22, #0x40
  401f24:	91010063 	add	x3, x3, #0x40
  401f28:	d37df2b5 	lsl	x21, x21, #3
  401f2c:	f94057fc 	ldr	x28, [sp, #168]
  401f30:	9101039b 	add	x27, x28, #0x40
  401f34:	911443fc 	add	x28, sp, #0x510
  401f38:	a900178b 	stp	x11, x5, [x28]
  401f3c:	910102ab 	add	x11, x21, #0x40
  401f40:	a901139b 	stp	x27, x4, [x28, #16]
  401f44:	f9020fe2 	str	x2, [sp, #1048]
  401f48:	f90283e1 	str	x1, [sp, #1280]
  401f4c:	91010121 	add	x1, x9, #0x40
  401f50:	910101a9 	add	x9, x13, #0x40
  401f54:	910102ed 	add	x13, x23, #0x40
  401f58:	f94043fc 	ldr	x28, [sp, #128]
  401f5c:	f9027ff8 	str	x24, [sp, #1272]
  401f60:	f9404be2 	ldr	x2, [sp, #144]
  401f64:	f90287ee 	str	x14, [sp, #1288]
  401f68:	f9404ff7 	ldr	x23, [sp, #152]
  401f6c:	9101038e 	add	x14, x28, #0x40
  401f70:	f9021fe1 	str	x1, [sp, #1080]
  401f74:	91002321 	add	x1, x25, #0x8
  401f78:	f94053e4 	ldr	x4, [sp, #160]
  401f7c:	f90223ea 	str	x10, [sp, #1088]
  401f80:	910100ca 	add	x10, x6, #0x40
  401f84:	aa1903e6 	mov	x6, x25
  401f88:	f9405be5 	ldr	x5, [sp, #176]
  401f8c:	91012339 	add	x25, x25, #0x48
  401f90:	910102fb 	add	x27, x23, #0x40
  401f94:	f90227ee 	str	x14, [sp, #1096]
  401f98:	f9022bec 	str	x12, [sp, #1104]
  401f9c:	91010095 	add	x21, x4, #0x40
  401fa0:	91010044 	add	x4, x2, #0x40
  401fa4:	f90237fb 	str	x27, [sp, #1128]
  401fa8:	f90247ed 	str	x13, [sp, #1160]
  401fac:	910100b8 	add	x24, x5, #0x40
  401fb0:	910100e5 	add	x5, x7, #0x40
  401fb4:	f90233e4 	str	x4, [sp, #1120]
  401fb8:	f9023bf5 	str	x21, [sp, #1136]
  401fbc:	aa1a03e7 	mov	x7, x26
  401fc0:	9101011a 	add	x26, x8, #0x40
  401fc4:	f9024bf0 	str	x16, [sp, #1168]
  401fc8:	f90257f6 	str	x22, [sp, #1192]
  401fcc:	f9025beb 	str	x11, [sp, #1200]
  401fd0:	f9025ff4 	str	x20, [sp, #1208]
  401fd4:	f90263e0 	str	x0, [sp, #1216]
  401fd8:	f90267f3 	str	x19, [sp, #1224]
  401fdc:	f9026bf1 	str	x17, [sp, #1232]
  401fe0:	f9026ffe 	str	x30, [sp, #1240]
  401fe4:	f90273e9 	str	x9, [sp, #1248]
  401fe8:	f90277f2 	str	x18, [sp, #1256]
  401fec:	f9027bef 	str	x15, [sp, #1264]
  401ff0:	f9029bf8 	str	x24, [sp, #1328]
  401ff4:	f9024fe5 	str	x5, [sp, #1176]
  401ff8:	f94047e8 	ldr	x8, [sp, #136]
  401ffc:	f901ffe1 	str	x1, [sp, #1016]
  402000:	f94157ef 	ldr	x15, [sp, #680]
  402004:	f90203f9 	str	x25, [sp, #1024]
  402008:	f94213fe 	ldr	x30, [sp, #1056]
  40200c:	91010116 	add	x22, x8, #0x40
  402010:	f9020bff 	str	xzr, [sp, #1040]
  402014:	f9403be4 	ldr	x4, [sp, #112]
  402018:	d37df1f2 	lsl	x18, x15, #3
  40201c:	f9022ff6 	str	x22, [sp, #1112]
  402020:	f9403fe5 	ldr	x5, [sp, #120]
  402024:	910103cb 	add	x11, x30, #0x40
  402028:	f901f7f2 	str	x18, [sp, #1000]
  40202c:	f9023ffa 	str	x26, [sp, #1144]
  402030:	f90243e3 	str	x3, [sp, #1152]
  402034:	f90253ea 	str	x10, [sp, #1184]
  402038:	f9029feb 	str	x11, [sp, #1336]
  40203c:	d503201f 	nop
  402040:	f94207e9 	ldr	x9, [sp, #1032]
  402044:	f9420be0 	ldr	x0, [sp, #1040]
  402048:	f9420fed 	ldr	x13, [sp, #1048]
  40204c:	91000533 	add	x19, x9, #0x1
  402050:	f94213f7 	ldr	x23, [sp, #1056]
  402054:	f90207f3 	str	x19, [sp, #1032]
  402058:	f9421ffc 	ldr	x28, [sp, #1080]
  40205c:	8b0401b5 	add	x21, x13, x4
  402060:	8b0501b4 	add	x20, x13, x5
  402064:	f94223ee 	ldr	x14, [sp, #1088]
  402068:	8b1701bb 	add	x27, x13, x23
  40206c:	f94227e2 	ldr	x2, [sp, #1096]
  402070:	8b00038c 	add	x12, x28, x0
  402074:	f901dffb 	str	x27, [sp, #952]
  402078:	f9422be8 	ldr	x8, [sp, #1104]
  40207c:	8b0001d8 	add	x24, x14, x0
  402080:	f901dbec 	str	x12, [sp, #944]
  402084:	f9422ffe 	ldr	x30, [sp, #1112]
  402088:	8b00005a 	add	x26, x2, x0
  40208c:	f901d7f8 	str	x24, [sp, #936]
  402090:	f94233ea 	ldr	x10, [sp, #1120]
  402094:	8b00010f 	add	x15, x8, x0
  402098:	f901d3fa 	str	x26, [sp, #928]
  40209c:	f94237e3 	ldr	x3, [sp, #1128]
  4020a0:	8b0003d2 	add	x18, x30, x0
  4020a4:	f901cfef 	str	x15, [sp, #920]
  4020a8:	f9423bf6 	ldr	x22, [sp, #1136]
  4020ac:	8b00014b 	add	x11, x10, x0
  4020b0:	f901cbf2 	str	x18, [sp, #912]
  4020b4:	f9423fe9 	ldr	x9, [sp, #1144]
  4020b8:	8b000061 	add	x1, x3, x0
  4020bc:	f901c7eb 	str	x11, [sp, #904]
  4020c0:	f94243f3 	ldr	x19, [sp, #1152]
  4020c4:	8b0002d9 	add	x25, x22, x0
  4020c8:	f901c3e1 	str	x1, [sp, #896]
  4020cc:	f94247f7 	ldr	x23, [sp, #1160]
  4020d0:	f901bff9 	str	x25, [sp, #888]
  4020d4:	f9424bfc 	ldr	x28, [sp, #1168]
  4020d8:	f9429ff0 	ldr	x16, [sp, #1336]
  4020dc:	8b0002fb 	add	x27, x23, x0
  4020e0:	f9424fee 	ldr	x14, [sp, #1176]
  4020e4:	8b00038c 	add	x12, x28, x0
  4020e8:	f901b3fb 	str	x27, [sp, #864]
  4020ec:	8b0d0211 	add	x17, x16, x13
  4020f0:	8b000130 	add	x16, x9, x0
  4020f4:	f901afec 	str	x12, [sp, #856]
  4020f8:	8b00026d 	add	x13, x19, x0
  4020fc:	8b0001d8 	add	x24, x14, x0
  402100:	f901bbf0 	str	x16, [sp, #880]
  402104:	f901b7ed 	str	x13, [sp, #872]
  402108:	f901abf8 	str	x24, [sp, #848]
  40210c:	f94253e2 	ldr	x2, [sp, #1184]
  402110:	f94257e8 	ldr	x8, [sp, #1192]
  402114:	f9425bfe 	ldr	x30, [sp, #1200]
  402118:	8b00005a 	add	x26, x2, x0
  40211c:	f9425fea 	ldr	x10, [sp, #1208]
  402120:	8b00010f 	add	x15, x8, x0
  402124:	f901a7fa 	str	x26, [sp, #840]
  402128:	f94263e3 	ldr	x3, [sp, #1216]
  40212c:	8b0003d2 	add	x18, x30, x0
  402130:	f901a3ef 	str	x15, [sp, #832]
  402134:	f94267f6 	ldr	x22, [sp, #1224]
  402138:	8b00014b 	add	x11, x10, x0
  40213c:	f9019ff2 	str	x18, [sp, #824]
  402140:	f9426be9 	ldr	x9, [sp, #1232]
  402144:	8b000061 	add	x1, x3, x0
  402148:	f90183eb 	str	x11, [sp, #768]
  40214c:	f9426ff3 	ldr	x19, [sp, #1240]
  402150:	8b0002d9 	add	x25, x22, x0
  402154:	f90187e1 	str	x1, [sp, #776]
  402158:	f94273f7 	ldr	x23, [sp, #1248]
  40215c:	8b000130 	add	x16, x9, x0
  402160:	f9018bf9 	str	x25, [sp, #784]
  402164:	f94277fc 	ldr	x28, [sp, #1256]
  402168:	8b00026d 	add	x13, x19, x0
  40216c:	f9018ff0 	str	x16, [sp, #792]
  402170:	f9427bee 	ldr	x14, [sp, #1264]
  402174:	8b0002fb 	add	x27, x23, x0
  402178:	f90193ed 	str	x13, [sp, #800]
  40217c:	f9427fe2 	ldr	x2, [sp, #1272]
  402180:	8b00038c 	add	x12, x28, x0
  402184:	f90197fb 	str	x27, [sp, #808]
  402188:	f94283e8 	ldr	x8, [sp, #1280]
  40218c:	8b0001d8 	add	x24, x14, x0
  402190:	f9019bec 	str	x12, [sp, #816]
  402194:	f94287fe 	ldr	x30, [sp, #1288]
  402198:	8b00005a 	add	x26, x2, x0
  40219c:	f9017bf8 	str	x24, [sp, #752]
  4021a0:	f9428bea 	ldr	x10, [sp, #1296]
  4021a4:	8b00010f 	add	x15, x8, x0
  4021a8:	f90177fa 	str	x26, [sp, #744]
  4021ac:	aa1503e8 	mov	x8, x21
  4021b0:	f9428fe3 	ldr	x3, [sp, #1304]
  4021b4:	8b0003d2 	add	x18, x30, x0
  4021b8:	f90173ef 	str	x15, [sp, #736]
  4021bc:	8b00014b 	add	x11, x10, x0
  4021c0:	f9016ff2 	str	x18, [sp, #728]
  4021c4:	aa0703ea 	mov	x10, x7
  4021c8:	aa1403e7 	mov	x7, x20
  4021cc:	8b000061 	add	x1, x3, x0
  4021d0:	f9016beb 	str	x11, [sp, #720]
  4021d4:	f90167e1 	str	x1, [sp, #712]
  4021d8:	f94293f6 	ldr	x22, [sp, #1312]
  4021dc:	f9017fff 	str	xzr, [sp, #760]
  4021e0:	f94297e9 	ldr	x9, [sp, #1320]
  4021e4:	f9429bf3 	ldr	x19, [sp, #1328]
  4021e8:	8b0002d9 	add	x25, x22, x0
  4021ec:	8b000130 	add	x16, x9, x0
  4021f0:	aa1103e9 	mov	x9, x17
  4021f4:	f90163f9 	str	x25, [sp, #704]
  4021f8:	8b000260 	add	x0, x19, x0
  4021fc:	f9015ff0 	str	x16, [sp, #696]
  402200:	f9015be0 	str	x0, [sp, #688]
  402204:	f9417ff1 	ldr	x17, [sp, #760]
  402208:	f941f7f5 	ldr	x21, [sp, #1000]
  40220c:	f941fff7 	ldr	x23, [sp, #1016]
  402210:	9100062d 	add	x13, x17, #0x1
  402214:	f94203fb 	ldr	x27, [sp, #1024]
  402218:	8b0902b4 	add	x20, x21, x9
  40221c:	f9017fed 	str	x13, [sp, #760]
  402220:	eb17029f 	cmp	x20, x23
  402224:	fa5b8122 	ccmp	x9, x27, #0x2, hi  // hi = pmore
  402228:	540069c3 	b.cc	402f60 <_Z13one_iterationv._omp_fn.0+0x1380>  // b.lo, b.ul, b.last
  40222c:	f941dbef 	ldr	x15, [sp, #944]
  402230:	910120f8 	add	x24, x7, #0x48
  402234:	9101011c 	add	x28, x8, #0x40
  402238:	910100ec 	add	x12, x7, #0x40
  40223c:	9101210e 	add	x14, x8, #0x48
  402240:	85c1e4d6 	ld1rd	{z22.d}, p1/z, [x6, #8]
  402244:	f90077f8 	str	x24, [sp, #232]
  402248:	9100e102 	add	x2, x8, #0x38
  40224c:	9100e0fa 	add	x26, x7, #0x38
  402250:	f941cbf8 	ldr	x24, [sp, #912]
  402254:	9101411b 	add	x27, x8, #0x50
  402258:	85c2e4d5 	ld1rd	{z21.d}, p1/z, [x6, #16]
  40225c:	f9006ffa 	str	x26, [sp, #216]
  402260:	85c3e4d4 	ld1rd	{z20.d}, p1/z, [x6, #24]
  402264:	85c4e4d3 	ld1rd	{z19.d}, p1/z, [x6, #32]
  402268:	f941cff1 	ldr	x17, [sp, #920]
  40226c:	8b0f009e 	add	x30, x4, x15
  402270:	8b0f00ab 	add	x11, x5, x15
  402274:	f90073e2 	str	x2, [sp, #224]
  402278:	85c5e4d2 	ld1rd	{z18.d}, p1/z, [x6, #40]
  40227c:	9101e115 	add	x21, x8, #0x78
  402280:	f941d3f9 	ldr	x25, [sp, #928]
  402284:	9101e0f4 	add	x20, x7, #0x78
  402288:	91002113 	add	x19, x8, #0x8
  40228c:	8b180082 	add	x2, x4, x24
  402290:	8b1800ba 	add	x26, x5, x24
  402294:	f9007bee 	str	x14, [sp, #240]
  402298:	f941d7e3 	ldr	x3, [sp, #936]
  40229c:	9100c0ee 	add	x14, x7, #0x30
  4022a0:	910020f2 	add	x18, x7, #0x8
  4022a4:	8b11008d 	add	x13, x4, x17
  4022a8:	8b1100b7 	add	x23, x5, x17
  4022ac:	f9007fec 	str	x12, [sp, #248]
  4022b0:	f941c7ef 	ldr	x15, [sp, #904]
  4022b4:	9100c10c 	add	x12, x8, #0x30
  4022b8:	91016111 	add	x17, x8, #0x58
  4022bc:	8b190090 	add	x16, x4, x25
  4022c0:	8b1900a0 	add	x0, x5, x25
  4022c4:	f90083fc 	str	x28, [sp, #256]
  4022c8:	910140fc 	add	x28, x7, #0x50
  4022cc:	a90cfbeb 	stp	x11, x30, [sp, #200]
  4022d0:	65cc86f6 	fdivr	z22.d, p1/m, z22.d, z23.d
  4022d4:	8b030081 	add	x1, x4, x3
  4022d8:	8b0300b6 	add	x22, x5, x3
  4022dc:	65cc86f5 	fdivr	z21.d, p1/m, z21.d, z23.d
  4022e0:	65cc86f4 	fdivr	z20.d, p1/m, z20.d, z23.d
  4022e4:	65cc86f3 	fdivr	z19.d, p1/m, z19.d, z23.d
  4022e8:	65cc86f2 	fdivr	z18.d, p1/m, z18.d, z23.d
  4022ec:	8b0f009e 	add	x30, x4, x15
  4022f0:	8b0f00ab 	add	x11, x5, x15
  4022f4:	f9003be2 	str	x2, [sp, #112]
  4022f8:	f9003fee 	str	x14, [sp, #120]
  4022fc:	25824840 	mov	p0.b, p2.b
  402300:	f90043ec 	str	x12, [sp, #128]
  402304:	f90047fc 	str	x28, [sp, #136]
  402308:	f9004bfb 	str	x27, [sp, #144]
  40230c:	9100a0fb 	add	x27, x7, #0x28
  402310:	a909b7f7 	stp	x23, x13, [sp, #152]
  402314:	9100a117 	add	x23, x8, #0x28
  402318:	910160ed 	add	x13, x7, #0x58
  40231c:	a90ac3e0 	stp	x0, x16, [sp, #168]
  402320:	a90b87f6 	stp	x22, x1, [sp, #184]
  402324:	f900cbfa 	str	x26, [sp, #400]
  402328:	a9187beb 	stp	x11, x30, [sp, #384]
  40232c:	85c6e4d1 	ld1rd	{z17.d}, p1/z, [x6, #48]
  402330:	85c7e4d0 	ld1rd	{z16.d}, p1/z, [x6, #56]
  402334:	85c8e4c7 	ld1rd	{z7.d}, p1/z, [x6, #64]
  402338:	65cc86f1 	fdivr	z17.d, p1/m, z17.d, z23.d
  40233c:	65cc86f0 	fdivr	z16.d, p1/m, z16.d, z23.d
  402340:	65cc86e7 	fdivr	z7.d, p1/m, z7.d, z23.d
  402344:	f941bff9 	ldr	x25, [sp, #888]
  402348:	f900a7f7 	str	x23, [sp, #328]
  40234c:	f941b7f8 	ldr	x24, [sp, #872]
  402350:	f900a3fb 	str	x27, [sp, #320]
  402354:	f941bbfc 	ldr	x28, [sp, #880]
  402358:	8b190090 	add	x16, x4, x25
  40235c:	8b1900a0 	add	x0, x5, x25
  402360:	f900abed 	str	x13, [sp, #336]
  402364:	f941c3e3 	ldr	x3, [sp, #896]
  402368:	8b18009e 	add	x30, x4, x24
  40236c:	a91643e0 	stp	x0, x16, [sp, #352]
  402370:	910080f0 	add	x16, x7, #0x20
  402374:	8b1c008c 	add	x12, x4, x28
  402378:	8b1c00ae 	add	x14, x5, x28
  40237c:	8b1800bc 	add	x28, x5, x24
  402380:	f941a3f8 	ldr	x24, [sp, #832]
  402384:	8b030081 	add	x1, x4, x3
  402388:	8b0300b6 	add	x22, x5, x3
  40238c:	a91333ee 	stp	x14, x12, [sp, #304]
  402390:	91018103 	add	x3, x8, #0x60
  402394:	f941a7f7 	ldr	x23, [sp, #840]
  402398:	f900aff1 	str	x17, [sp, #344]
  40239c:	f941abe0 	ldr	x0, [sp, #848]
  4023a0:	a91707f6 	stp	x22, x1, [sp, #368]
  4023a4:	910180e1 	add	x1, x7, #0x60
  4023a8:	91008116 	add	x22, x8, #0x20
  4023ac:	8b17008c 	add	x12, x4, x23
  4023b0:	8b1700ae 	add	x14, x5, x23
  4023b4:	f941afef 	ldr	x15, [sp, #856]
  4023b8:	8b000091 	add	x17, x4, x0
  4023bc:	8b0000ad 	add	x13, x5, x0
  4023c0:	f90087f0 	str	x16, [sp, #264]
  4023c4:	f941b3e2 	ldr	x2, [sp, #864]
  4023c8:	9101a0f0 	add	x16, x7, #0x68
  4023cc:	91006100 	add	x0, x8, #0x18
  4023d0:	f9008bf6 	str	x22, [sp, #272]
  4023d4:	9101a116 	add	x22, x8, #0x68
  4023d8:	f9008fe1 	str	x1, [sp, #280]
  4023dc:	8b0f00ab 	add	x11, x5, x15
  4023e0:	8b0f0099 	add	x25, x4, x15
  4023e4:	f90093e3 	str	x3, [sp, #288]
  4023e8:	8b1800af 	add	x15, x5, x24
  4023ec:	f90117ee 	str	x14, [sp, #552]
  4023f0:	8b02009b 	add	x27, x4, x2
  4023f4:	8b0200ba 	add	x26, x5, x2
  4023f8:	f90097eb 	str	x11, [sp, #296]
  4023fc:	8b180082 	add	x2, x4, x24
  402400:	f9011bec 	str	x12, [sp, #560]
  402404:	f9011fed 	str	x13, [sp, #568]
  402408:	f90113e2 	str	x2, [sp, #544]
  40240c:	f90123f1 	str	x17, [sp, #576]
  402410:	910060f1 	add	x17, x7, #0x18
  402414:	f9010fef 	str	x15, [sp, #536]
  402418:	f9419feb 	ldr	x11, [sp, #824]
  40241c:	f90103f6 	str	x22, [sp, #512]
  402420:	f94183ed 	ldr	x13, [sp, #768]
  402424:	f900fff0 	str	x16, [sp, #504]
  402428:	f94187ee 	ldr	x14, [sp, #776]
  40242c:	8b0b0083 	add	x3, x4, x11
  402430:	8b0b00a1 	add	x1, x5, x11
  402434:	f900f7f1 	str	x17, [sp, #488]
  402438:	f9418bef 	ldr	x15, [sp, #784]
  40243c:	9101c0f1 	add	x17, x7, #0x70
  402440:	8b0d0097 	add	x23, x4, x13
  402444:	8b0d00ac 	add	x12, x5, x13
  402448:	f9010be3 	str	x3, [sp, #528]
  40244c:	f9418ff6 	ldr	x22, [sp, #792]
  402450:	9100410d 	add	x13, x8, #0x10
  402454:	8b0e0098 	add	x24, x4, x14
  402458:	8b0e00a2 	add	x2, x5, x14
  40245c:	a91ddfec 	stp	x12, x23, [sp, #472]
  402460:	910040f7 	add	x23, x7, #0x10
  402464:	8b0f008b 	add	x11, x4, x15
  402468:	8b0f00a3 	add	x3, x5, x15
  40246c:	a91ce3e2 	stp	x2, x24, [sp, #456]
  402470:	8b1600b0 	add	x16, x5, x22
  402474:	a91bafe3 	stp	x3, x11, [sp, #440]
  402478:	f94193ec 	ldr	x12, [sp, #800]
  40247c:	f90107e1 	str	x1, [sp, #520]
  402480:	8b160081 	add	x1, x4, x22
  402484:	f94197e2 	ldr	x2, [sp, #808]
  402488:	a91a87f0 	stp	x16, x1, [sp, #424]
  40248c:	8b0c008e 	add	x14, x4, x12
  402490:	8b0c00b8 	add	x24, x5, x12
  402494:	f9419be3 	ldr	x3, [sp, #816]
  402498:	8b02008f 	add	x15, x4, x2
  40249c:	8b0200ab 	add	x11, x5, x2
  4024a0:	f900fbe0 	str	x0, [sp, #496]
  4024a4:	9101c100 	add	x0, x8, #0x70
  4024a8:	f900cff1 	str	x17, [sp, #408]
  4024ac:	f9012feb 	str	x11, [sp, #600]
  4024b0:	f900d3e0 	str	x0, [sp, #416]
  4024b4:	8b030081 	add	x1, x4, x3
  4024b8:	f90133ef 	str	x15, [sp, #608]
  4024bc:	f90137f8 	str	x24, [sp, #616]
  4024c0:	8b0300b8 	add	x24, x5, x3
  4024c4:	f9012be1 	str	x1, [sp, #592]
  4024c8:	91020101 	add	x1, x8, #0x80
  4024cc:	f9013bee 	str	x14, [sp, #624]
  4024d0:	f9013ff7 	str	x23, [sp, #632]
  4024d4:	f90143ed 	str	x13, [sp, #640]
  4024d8:	f9417bf6 	ldr	x22, [sp, #752]
  4024dc:	f94177f0 	ldr	x16, [sp, #744]
  4024e0:	f901ebe1 	str	x1, [sp, #976]
  4024e4:	f94173e0 	ldr	x0, [sp, #736]
  4024e8:	8b160097 	add	x23, x4, x22
  4024ec:	8b1600b6 	add	x22, x5, x22
  4024f0:	f901f3e5 	str	x5, [sp, #992]
  4024f4:	f9416be2 	ldr	x2, [sp, #720]
  4024f8:	8b100091 	add	x17, x4, x16
  4024fc:	8b1000b0 	add	x16, x5, x16
  402500:	f901efe4 	str	x4, [sp, #984]
  402504:	f9416fec 	ldr	x12, [sp, #728]
  402508:	8b00008f 	add	x15, x4, x0
  40250c:	8b0000ae 	add	x14, x5, x0
  402510:	f94167e0 	ldr	x0, [sp, #712]
  402514:	8b0200a3 	add	x3, x5, x2
  402518:	8b02008b 	add	x11, x4, x2
  40251c:	f90127e3 	str	x3, [sp, #584]
  402520:	8b0c008d 	add	x13, x4, x12
  402524:	8b0c00ac 	add	x12, x5, x12
  402528:	8b000082 	add	x2, x4, x0
  40252c:	8b0000a3 	add	x3, x5, x0
  402530:	f94163e0 	ldr	x0, [sp, #704]
  402534:	f901e7e2 	str	x2, [sp, #968]
  402538:	f9415fe2 	ldr	x2, [sp, #696]
  40253c:	f901e3e3 	str	x3, [sp, #960]
  402540:	8b000081 	add	x1, x4, x0
  402544:	8b0000a0 	add	x0, x5, x0
  402548:	f9014be0 	str	x0, [sp, #656]
  40254c:	f9415be0 	ldr	x0, [sp, #688]
  402550:	8b020083 	add	x3, x4, x2
  402554:	8b0200a2 	add	x2, x5, x2
  402558:	f9014fe1 	str	x1, [sp, #664]
  40255c:	8b000081 	add	x1, x4, x0
  402560:	8b0000a0 	add	x0, x5, x0
  402564:	f941e7e5 	ldr	x5, [sp, #968]
  402568:	f901e7ea 	str	x10, [sp, #968]
  40256c:	f941ebea 	ldr	x10, [sp, #976]
  402570:	f90147e0 	str	x0, [sp, #648]
  402574:	d2800000 	mov	x0, #0x0                   	// #0
  402578:	f941e3e4 	ldr	x4, [sp, #960]
  40257c:	f901e3e6 	str	x6, [sp, #960]
  402580:	910200e6 	add	x6, x7, #0x80
  402584:	f90153e1 	str	x1, [sp, #672]
  402588:	f94083e1 	ldr	x1, [sp, #256]
  40258c:	a5e04020 	ld1d	{z0.d}, p0/z, [x1, x0, lsl #3]
  402590:	f9407fe1 	ldr	x1, [sp, #248]
  402594:	a5e04038 	ld1d	{z24.d}, p0/z, [x1, x0, lsl #3]
  402598:	65c00b08 	fmul	z8.d, z24.d, z0.d
  40259c:	f9407be1 	ldr	x1, [sp, #240]
  4025a0:	a5e04021 	ld1d	{z1.d}, p0/z, [x1, x0, lsl #3]
  4025a4:	f94077e1 	ldr	x1, [sp, #232]
  4025a8:	a5e04026 	ld1d	{z6.d}, p0/z, [x1, x0, lsl #3]
  4025ac:	65c108c9 	fmul	z9.d, z6.d, z1.d
  4025b0:	65e886c9 	fmad	z9.d, p1/m, z22.d, z8.d
  4025b4:	f94073e1 	ldr	x1, [sp, #224]
  4025b8:	a5e04022 	ld1d	{z2.d}, p0/z, [x1, x0, lsl #3]
  4025bc:	f9406fe1 	ldr	x1, [sp, #216]
  4025c0:	a5e04025 	ld1d	{z5.d}, p0/z, [x1, x0, lsl #3]
  4025c4:	65c208ba 	fmul	z26.d, z5.d, z2.d
  4025c8:	65e986da 	fmad	z26.d, p1/m, z22.d, z9.d
  4025cc:	f9406be1 	ldr	x1, [sp, #208]
  4025d0:	a5e04023 	ld1d	{z3.d}, p0/z, [x1, x0, lsl #3]
  4025d4:	f94067e1 	ldr	x1, [sp, #200]
  4025d8:	a5e04024 	ld1d	{z4.d}, p0/z, [x1, x0, lsl #3]
  4025dc:	65c3089b 	fmul	z27.d, z4.d, z3.d
  4025e0:	65fa86db 	fmad	z27.d, p1/m, z22.d, z26.d
  4025e4:	f94063e1 	ldr	x1, [sp, #192]
  4025e8:	a5e04039 	ld1d	{z25.d}, p0/z, [x1, x0, lsl #3]
  4025ec:	f9405fe1 	ldr	x1, [sp, #184]
  4025f0:	a5e0403c 	ld1d	{z28.d}, p0/z, [x1, x0, lsl #3]
  4025f4:	65d90b9d 	fmul	z29.d, z28.d, z25.d
  4025f8:	65fb86dd 	fmad	z29.d, p1/m, z22.d, z27.d
  4025fc:	f9405be1 	ldr	x1, [sp, #176]
  402600:	a5e0403e 	ld1d	{z30.d}, p0/z, [x1, x0, lsl #3]
  402604:	f94057e1 	ldr	x1, [sp, #168]
  402608:	a5e0403f 	ld1d	{z31.d}, p0/z, [x1, x0, lsl #3]
  40260c:	65de0bf8 	fmul	z24.d, z31.d, z30.d
  402610:	65fd86d8 	fmad	z24.d, p1/m, z22.d, z29.d
  402614:	f94053e1 	ldr	x1, [sp, #160]
  402618:	a5e04020 	ld1d	{z0.d}, p0/z, [x1, x0, lsl #3]
  40261c:	f9404fe1 	ldr	x1, [sp, #152]
  402620:	a5e04021 	ld1d	{z1.d}, p0/z, [x1, x0, lsl #3]
  402624:	65c00826 	fmul	z6.d, z1.d, z0.d
  402628:	65f886c6 	fmad	z6.d, p1/m, z22.d, z24.d
  40262c:	f9404be1 	ldr	x1, [sp, #144]
  402630:	a5e04022 	ld1d	{z2.d}, p0/z, [x1, x0, lsl #3]
  402634:	f94047e1 	ldr	x1, [sp, #136]
  402638:	a5e04025 	ld1d	{z5.d}, p0/z, [x1, x0, lsl #3]
  40263c:	e5e04128 	st1d	{z8.d}, p0, [x9, x0, lsl #3]
  402640:	e5e04129 	st1d	{z9.d}, p0, [x9, x0, lsl #3]
  402644:	e5e0413a 	st1d	{z26.d}, p0, [x9, x0, lsl #3]
  402648:	e5e0413b 	st1d	{z27.d}, p0, [x9, x0, lsl #3]
  40264c:	f94043e1 	ldr	x1, [sp, #128]
  402650:	a5e04028 	ld1d	{z8.d}, p0/z, [x1, x0, lsl #3]
  402654:	e5e0413d 	st1d	{z29.d}, p0, [x9, x0, lsl #3]
  402658:	e5e04138 	st1d	{z24.d}, p0, [x9, x0, lsl #3]
  40265c:	65c208a3 	fmul	z3.d, z5.d, z2.d
  402660:	65e686a3 	fmad	z3.d, p1/m, z21.d, z6.d
  402664:	f9403fe1 	ldr	x1, [sp, #120]
  402668:	a5e04029 	ld1d	{z9.d}, p0/z, [x1, x0, lsl #3]
  40266c:	e5e04126 	st1d	{z6.d}, p0, [x9, x0, lsl #3]
  402670:	e5e04123 	st1d	{z3.d}, p0, [x9, x0, lsl #3]
  402674:	65c8093a 	fmul	z26.d, z9.d, z8.d
  402678:	65e386ba 	fmad	z26.d, p1/m, z21.d, z3.d
  40267c:	f9403be1 	ldr	x1, [sp, #112]
  402680:	a5e04024 	ld1d	{z4.d}, p0/z, [x1, x0, lsl #3]
  402684:	f940cbe1 	ldr	x1, [sp, #400]
  402688:	a5e0403b 	ld1d	{z27.d}, p0/z, [x1, x0, lsl #3]
  40268c:	65c40b79 	fmul	z25.d, z27.d, z4.d
  402690:	65fa86b9 	fmad	z25.d, p1/m, z21.d, z26.d
  402694:	f940c7e1 	ldr	x1, [sp, #392]
  402698:	a5e0403c 	ld1d	{z28.d}, p0/z, [x1, x0, lsl #3]
  40269c:	f940c3e1 	ldr	x1, [sp, #384]
  4026a0:	a5e0403d 	ld1d	{z29.d}, p0/z, [x1, x0, lsl #3]
  4026a4:	65dc0bbe 	fmul	z30.d, z29.d, z28.d
  4026a8:	65f986be 	fmad	z30.d, p1/m, z21.d, z25.d
  4026ac:	f940bfe1 	ldr	x1, [sp, #376]
  4026b0:	a5e0403f 	ld1d	{z31.d}, p0/z, [x1, x0, lsl #3]
  4026b4:	f940bbe1 	ldr	x1, [sp, #368]
  4026b8:	a5e04038 	ld1d	{z24.d}, p0/z, [x1, x0, lsl #3]
  4026bc:	65df0b00 	fmul	z0.d, z24.d, z31.d
  4026c0:	65fe86a0 	fmad	z0.d, p1/m, z21.d, z30.d
  4026c4:	f940b7e1 	ldr	x1, [sp, #360]
  4026c8:	a5e04021 	ld1d	{z1.d}, p0/z, [x1, x0, lsl #3]
  4026cc:	e5e0413a 	st1d	{z26.d}, p0, [x9, x0, lsl #3]
  4026d0:	e5e04139 	st1d	{z25.d}, p0, [x9, x0, lsl #3]
  4026d4:	a5e043db 	ld1d	{z27.d}, p0/z, [x30, x0, lsl #3]
  4026d8:	e5e0413e 	st1d	{z30.d}, p0, [x9, x0, lsl #3]
  4026dc:	f940b3e1 	ldr	x1, [sp, #352]
  4026e0:	a5e04026 	ld1d	{z6.d}, p0/z, [x1, x0, lsl #3]
  4026e4:	65c108c5 	fmul	z5.d, z6.d, z1.d
  4026e8:	65e086a5 	fmad	z5.d, p1/m, z21.d, z0.d
  4026ec:	e5e04120 	st1d	{z0.d}, p0, [x9, x0, lsl #3]
  4026f0:	e5e04125 	st1d	{z5.d}, p0, [x9, x0, lsl #3]
  4026f4:	f940afe1 	ldr	x1, [sp, #344]
  4026f8:	a5e04023 	ld1d	{z3.d}, p0/z, [x1, x0, lsl #3]
  4026fc:	f940abe1 	ldr	x1, [sp, #336]
  402700:	a5e04022 	ld1d	{z2.d}, p0/z, [x1, x0, lsl #3]
  402704:	65c30848 	fmul	z8.d, z2.d, z3.d
  402708:	65e58688 	fmad	z8.d, p1/m, z20.d, z5.d
  40270c:	e5e04128 	st1d	{z8.d}, p0, [x9, x0, lsl #3]
  402710:	f940a7e1 	ldr	x1, [sp, #328]
  402714:	a5e04029 	ld1d	{z9.d}, p0/z, [x1, x0, lsl #3]
  402718:	f940a3e1 	ldr	x1, [sp, #320]
  40271c:	a5e0403a 	ld1d	{z26.d}, p0/z, [x1, x0, lsl #3]
  402720:	65c90b44 	fmul	z4.d, z26.d, z9.d
  402724:	65e88684 	fmad	z4.d, p1/m, z20.d, z8.d
  402728:	e5e04124 	st1d	{z4.d}, p0, [x9, x0, lsl #3]
  40272c:	f9409fe1 	ldr	x1, [sp, #312]
  402730:	a5e04039 	ld1d	{z25.d}, p0/z, [x1, x0, lsl #3]
  402734:	f9409be1 	ldr	x1, [sp, #304]
  402738:	a5e0403c 	ld1d	{z28.d}, p0/z, [x1, x0, lsl #3]
  40273c:	65d90b9d 	fmul	z29.d, z28.d, z25.d
  402740:	65e4869d 	fmad	z29.d, p1/m, z20.d, z4.d
  402744:	e5e0413d 	st1d	{z29.d}, p0, [x9, x0, lsl #3]
  402748:	a5e0439e 	ld1d	{z30.d}, p0/z, [x28, x0, lsl #3]
  40274c:	f94097e1 	ldr	x1, [sp, #296]
  402750:	a5e04025 	ld1d	{z5.d}, p0/z, [x1, x0, lsl #3]
  402754:	a5e0437f 	ld1d	{z31.d}, p0/z, [x27, x0, lsl #3]
  402758:	65db0bd8 	fmul	z24.d, z30.d, z27.d
  40275c:	a5e04340 	ld1d	{z0.d}, p0/z, [x26, x0, lsl #3]
  402760:	65df0806 	fmul	z6.d, z0.d, z31.d
  402764:	f94093e1 	ldr	x1, [sp, #288]
  402768:	a5e04022 	ld1d	{z2.d}, p0/z, [x1, x0, lsl #3]
  40276c:	a5e04321 	ld1d	{z1.d}, p0/z, [x25, x0, lsl #3]
  402770:	65fd8698 	fmad	z24.d, p1/m, z20.d, z29.d
  402774:	65c108a3 	fmul	z3.d, z5.d, z1.d
  402778:	65f88686 	fmad	z6.d, p1/m, z20.d, z24.d
  40277c:	f9408fe1 	ldr	x1, [sp, #280]
  402780:	a5e04028 	ld1d	{z8.d}, p0/z, [x1, x0, lsl #3]
  402784:	65e68683 	fmad	z3.d, p1/m, z20.d, z6.d
  402788:	e5e04138 	st1d	{z24.d}, p0, [x9, x0, lsl #3]
  40278c:	e5e04126 	st1d	{z6.d}, p0, [x9, x0, lsl #3]
  402790:	e5e04123 	st1d	{z3.d}, p0, [x9, x0, lsl #3]
  402794:	f9408be1 	ldr	x1, [sp, #272]
  402798:	a5e0403a 	ld1d	{z26.d}, p0/z, [x1, x0, lsl #3]
  40279c:	65c20909 	fmul	z9.d, z8.d, z2.d
  4027a0:	65e38669 	fmad	z9.d, p1/m, z19.d, z3.d
  4027a4:	f94087e1 	ldr	x1, [sp, #264]
  4027a8:	a5e04024 	ld1d	{z4.d}, p0/z, [x1, x0, lsl #3]
  4027ac:	65da089b 	fmul	z27.d, z4.d, z26.d
  4027b0:	65e9867b 	fmad	z27.d, p1/m, z19.d, z9.d
  4027b4:	f94123e1 	ldr	x1, [sp, #576]
  4027b8:	a5e04039 	ld1d	{z25.d}, p0/z, [x1, x0, lsl #3]
  4027bc:	f9411fe1 	ldr	x1, [sp, #568]
  4027c0:	a5e0403c 	ld1d	{z28.d}, p0/z, [x1, x0, lsl #3]
  4027c4:	65dc0b3d 	fmul	z29.d, z25.d, z28.d
  4027c8:	65fb867d 	fmad	z29.d, p1/m, z19.d, z27.d
  4027cc:	f9411be1 	ldr	x1, [sp, #560]
  4027d0:	a5e0403e 	ld1d	{z30.d}, p0/z, [x1, x0, lsl #3]
  4027d4:	f94117e1 	ldr	x1, [sp, #552]
  4027d8:	a5e0403f 	ld1d	{z31.d}, p0/z, [x1, x0, lsl #3]
  4027dc:	65de0bf8 	fmul	z24.d, z31.d, z30.d
  4027e0:	65fd8678 	fmad	z24.d, p1/m, z19.d, z29.d
  4027e4:	f94113e1 	ldr	x1, [sp, #544]
  4027e8:	a5e04020 	ld1d	{z0.d}, p0/z, [x1, x0, lsl #3]
  4027ec:	f9410fe1 	ldr	x1, [sp, #536]
  4027f0:	a5e04026 	ld1d	{z6.d}, p0/z, [x1, x0, lsl #3]
  4027f4:	e5e04129 	st1d	{z9.d}, p0, [x9, x0, lsl #3]
  4027f8:	e5e0413b 	st1d	{z27.d}, p0, [x9, x0, lsl #3]
  4027fc:	e5e0413d 	st1d	{z29.d}, p0, [x9, x0, lsl #3]
  402800:	65c60805 	fmul	z5.d, z0.d, z6.d
  402804:	f9410be1 	ldr	x1, [sp, #528]
  402808:	a5e04023 	ld1d	{z3.d}, p0/z, [x1, x0, lsl #3]
  40280c:	65f88665 	fmad	z5.d, p1/m, z19.d, z24.d
  402810:	e5e04138 	st1d	{z24.d}, p0, [x9, x0, lsl #3]
  402814:	e5e04125 	st1d	{z5.d}, p0, [x9, x0, lsl #3]
  402818:	f94107e1 	ldr	x1, [sp, #520]
  40281c:	a5e04021 	ld1d	{z1.d}, p0/z, [x1, x0, lsl #3]
  402820:	65c10868 	fmul	z8.d, z3.d, z1.d
  402824:	65e58668 	fmad	z8.d, p1/m, z19.d, z5.d
  402828:	f94103e1 	ldr	x1, [sp, #512]
  40282c:	a5e04022 	ld1d	{z2.d}, p0/z, [x1, x0, lsl #3]
  402830:	f940ffe1 	ldr	x1, [sp, #504]
  402834:	a5e04029 	ld1d	{z9.d}, p0/z, [x1, x0, lsl #3]
  402838:	65c9085a 	fmul	z26.d, z2.d, z9.d
  40283c:	65e8865a 	fmad	z26.d, p1/m, z18.d, z8.d
  402840:	f940fbe1 	ldr	x1, [sp, #496]
  402844:	a5e04024 	ld1d	{z4.d}, p0/z, [x1, x0, lsl #3]
  402848:	f940f7e1 	ldr	x1, [sp, #488]
  40284c:	a5e0403b 	ld1d	{z27.d}, p0/z, [x1, x0, lsl #3]
  402850:	65db0899 	fmul	z25.d, z4.d, z27.d
  402854:	65fa8659 	fmad	z25.d, p1/m, z18.d, z26.d
  402858:	f940f3e1 	ldr	x1, [sp, #480]
  40285c:	a5e0403c 	ld1d	{z28.d}, p0/z, [x1, x0, lsl #3]
  402860:	f940efe1 	ldr	x1, [sp, #472]
  402864:	a5e0403d 	ld1d	{z29.d}, p0/z, [x1, x0, lsl #3]
  402868:	65dd0b9e 	fmul	z30.d, z28.d, z29.d
  40286c:	65f9865e 	fmad	z30.d, p1/m, z18.d, z25.d
  402870:	f940ebe1 	ldr	x1, [sp, #464]
  402874:	a5e0403f 	ld1d	{z31.d}, p0/z, [x1, x0, lsl #3]
  402878:	f940e7e1 	ldr	x1, [sp, #456]
  40287c:	a5e04038 	ld1d	{z24.d}, p0/z, [x1, x0, lsl #3]
  402880:	65d80be6 	fmul	z6.d, z31.d, z24.d
  402884:	65fe8646 	fmad	z6.d, p1/m, z18.d, z30.d
  402888:	f940e3e1 	ldr	x1, [sp, #448]
  40288c:	a5e04025 	ld1d	{z5.d}, p0/z, [x1, x0, lsl #3]
  402890:	f940dfe1 	ldr	x1, [sp, #440]
  402894:	a5e04020 	ld1d	{z0.d}, p0/z, [x1, x0, lsl #3]
  402898:	e5e04128 	st1d	{z8.d}, p0, [x9, x0, lsl #3]
  40289c:	e5e0413a 	st1d	{z26.d}, p0, [x9, x0, lsl #3]
  4028a0:	e5e04139 	st1d	{z25.d}, p0, [x9, x0, lsl #3]
  4028a4:	65c008a3 	fmul	z3.d, z5.d, z0.d
  4028a8:	f940dbe1 	ldr	x1, [sp, #432]
  4028ac:	a5e04021 	ld1d	{z1.d}, p0/z, [x1, x0, lsl #3]
  4028b0:	65e68643 	fmad	z3.d, p1/m, z18.d, z6.d
  4028b4:	e5e0413e 	st1d	{z30.d}, p0, [x9, x0, lsl #3]
  4028b8:	e5e04126 	st1d	{z6.d}, p0, [x9, x0, lsl #3]
  4028bc:	e5e04123 	st1d	{z3.d}, p0, [x9, x0, lsl #3]
  4028c0:	f940d7e1 	ldr	x1, [sp, #424]
  4028c4:	a5e04028 	ld1d	{z8.d}, p0/z, [x1, x0, lsl #3]
  4028c8:	65c80822 	fmul	z2.d, z1.d, z8.d
  4028cc:	65e38642 	fmad	z2.d, p1/m, z18.d, z3.d
  4028d0:	e5e04122 	st1d	{z2.d}, p0, [x9, x0, lsl #3]
  4028d4:	f940d3e1 	ldr	x1, [sp, #416]
  4028d8:	a5e04029 	ld1d	{z9.d}, p0/z, [x1, x0, lsl #3]
  4028dc:	f940cfe1 	ldr	x1, [sp, #408]
  4028e0:	a5e0403a 	ld1d	{z26.d}, p0/z, [x1, x0, lsl #3]
  4028e4:	65da0924 	fmul	z4.d, z9.d, z26.d
  4028e8:	65e28624 	fmad	z4.d, p1/m, z17.d, z2.d
  4028ec:	e5e04124 	st1d	{z4.d}, p0, [x9, x0, lsl #3]
  4028f0:	f94143e1 	ldr	x1, [sp, #640]
  4028f4:	a5e0403b 	ld1d	{z27.d}, p0/z, [x1, x0, lsl #3]
  4028f8:	f9413fe1 	ldr	x1, [sp, #632]
  4028fc:	a5e04039 	ld1d	{z25.d}, p0/z, [x1, x0, lsl #3]
  402900:	65d90b7c 	fmul	z28.d, z27.d, z25.d
  402904:	65e4863c 	fmad	z28.d, p1/m, z17.d, z4.d
  402908:	f9413be1 	ldr	x1, [sp, #624]
  40290c:	a5e0403d 	ld1d	{z29.d}, p0/z, [x1, x0, lsl #3]
  402910:	f94137e1 	ldr	x1, [sp, #616]
  402914:	a5e0403e 	ld1d	{z30.d}, p0/z, [x1, x0, lsl #3]
  402918:	a5e04265 	ld1d	{z5.d}, p0/z, [x19, x0, lsl #3]
  40291c:	a5e042f8 	ld1d	{z24.d}, p0/z, [x23, x0, lsl #3]
  402920:	65de0bbf 	fmul	z31.d, z29.d, z30.d
  402924:	65fc863f 	fmad	z31.d, p1/m, z17.d, z28.d
  402928:	f94133e1 	ldr	x1, [sp, #608]
  40292c:	a5e04023 	ld1d	{z3.d}, p0/z, [x1, x0, lsl #3]
  402930:	a5e042a6 	ld1d	{z6.d}, p0/z, [x21, x0, lsl #3]
  402934:	a5e04240 	ld1d	{z0.d}, p0/z, [x18, x0, lsl #3]
  402938:	a5e04208 	ld1d	{z8.d}, p0/z, [x16, x0, lsl #3]
  40293c:	a5e0431a 	ld1d	{z26.d}, p0/z, [x24, x0, lsl #3]
  402940:	f9412fe1 	ldr	x1, [sp, #600]
  402944:	a5e04022 	ld1d	{z2.d}, p0/z, [x1, x0, lsl #3]
  402948:	a5e042d9 	ld1d	{z25.d}, p0/z, [x22, x0, lsl #3]
  40294c:	a5e0429d 	ld1d	{z29.d}, p0/z, [x20, x0, lsl #3]
  402950:	65c008a1 	fmul	z1.d, z5.d, z0.d
  402954:	65c20869 	fmul	z9.d, z3.d, z2.d
  402958:	f9412be1 	ldr	x1, [sp, #592]
  40295c:	65ff8629 	fmad	z9.d, p1/m, z17.d, z31.d
  402960:	a5e04024 	ld1d	{z4.d}, p0/z, [x1, x0, lsl #3]
  402964:	65dd08de 	fmul	z30.d, z6.d, z29.d
  402968:	65da089b 	fmul	z27.d, z4.d, z26.d
  40296c:	65e9863b 	fmad	z27.d, p1/m, z17.d, z9.d
  402970:	e5e0413c 	st1d	{z28.d}, p0, [x9, x0, lsl #3]
  402974:	65d90b1c 	fmul	z28.d, z24.d, z25.d
  402978:	65fb863c 	fmad	z28.d, p1/m, z17.d, z27.d
  40297c:	65fc861e 	fmad	z30.d, p1/m, z16.d, z28.d
  402980:	65fe8601 	fmad	z1.d, p1/m, z16.d, z30.d
  402984:	e5e0413f 	st1d	{z31.d}, p0, [x9, x0, lsl #3]
  402988:	a5e0423f 	ld1d	{z31.d}, p0/z, [x17, x0, lsl #3]
  40298c:	65c80be5 	fmul	z5.d, z31.d, z8.d
  402990:	65e18605 	fmad	z5.d, p1/m, z16.d, z1.d
  402994:	e5e04129 	st1d	{z9.d}, p0, [x9, x0, lsl #3]
  402998:	e5e0413b 	st1d	{z27.d}, p0, [x9, x0, lsl #3]
  40299c:	e5e0413c 	st1d	{z28.d}, p0, [x9, x0, lsl #3]
  4029a0:	e5e0413e 	st1d	{z30.d}, p0, [x9, x0, lsl #3]
  4029a4:	e5e04121 	st1d	{z1.d}, p0, [x9, x0, lsl #3]
  4029a8:	e5e04125 	st1d	{z5.d}, p0, [x9, x0, lsl #3]
  4029ac:	a5e041f8 	ld1d	{z24.d}, p0/z, [x15, x0, lsl #3]
  4029b0:	f94127e1 	ldr	x1, [sp, #584]
  4029b4:	a5e041a6 	ld1d	{z6.d}, p0/z, [x13, x0, lsl #3]
  4029b8:	a5e0403b 	ld1d	{z27.d}, p0/z, [x1, x0, lsl #3]
  4029bc:	a5e041c0 	ld1d	{z0.d}, p0/z, [x14, x0, lsl #3]
  4029c0:	a5e04181 	ld1d	{z1.d}, p0/z, [x12, x0, lsl #3]
  4029c4:	f9414fe1 	ldr	x1, [sp, #664]
  4029c8:	65c00b08 	fmul	z8.d, z24.d, z0.d
  4029cc:	65c108c9 	fmul	z9.d, z6.d, z1.d
  4029d0:	65e58608 	fmad	z8.d, p1/m, z16.d, z5.d
  4029d4:	a5e04026 	ld1d	{z6.d}, p0/z, [x1, x0, lsl #3]
  4029d8:	65e88609 	fmad	z9.d, p1/m, z16.d, z8.d
  4029dc:	f9414be1 	ldr	x1, [sp, #656]
  4029e0:	a5e0417a 	ld1d	{z26.d}, p0/z, [x11, x0, lsl #3]
  4029e4:	a5e04144 	ld1d	{z4.d}, p0/z, [x10, x0, lsl #3]
  4029e8:	a5e04103 	ld1d	{z3.d}, p0/z, [x8, x0, lsl #3]
  4029ec:	a5e040a2 	ld1d	{z2.d}, p0/z, [x5, x0, lsl #3]
  4029f0:	a5e040dc 	ld1d	{z28.d}, p0/z, [x6, x0, lsl #3]
  4029f4:	a5e040fe 	ld1d	{z30.d}, p0/z, [x7, x0, lsl #3]
  4029f8:	a5e04085 	ld1d	{z5.d}, p0/z, [x4, x0, lsl #3]
  4029fc:	a5e04060 	ld1d	{z0.d}, p0/z, [x3, x0, lsl #3]
  402a00:	65db0b59 	fmul	z25.d, z26.d, z27.d
  402a04:	65dc089d 	fmul	z29.d, z4.d, z28.d
  402a08:	65e98619 	fmad	z25.d, p1/m, z16.d, z9.d
  402a0c:	65de087f 	fmul	z31.d, z3.d, z30.d
  402a10:	65f984fd 	fmad	z29.d, p1/m, z7.d, z25.d
  402a14:	65c50858 	fmul	z24.d, z2.d, z5.d
  402a18:	65fd84ff 	fmad	z31.d, p1/m, z7.d, z29.d
  402a1c:	65ff84f8 	fmad	z24.d, p1/m, z7.d, z31.d
  402a20:	e5e04128 	st1d	{z8.d}, p0, [x9, x0, lsl #3]
  402a24:	a5e04028 	ld1d	{z8.d}, p0/z, [x1, x0, lsl #3]
  402a28:	65c808c1 	fmul	z1.d, z6.d, z8.d
  402a2c:	65f884e1 	fmad	z1.d, p1/m, z7.d, z24.d
  402a30:	e5e04129 	st1d	{z9.d}, p0, [x9, x0, lsl #3]
  402a34:	a5e04049 	ld1d	{z9.d}, p0/z, [x2, x0, lsl #3]
  402a38:	e5e04139 	st1d	{z25.d}, p0, [x9, x0, lsl #3]
  402a3c:	e5e0413d 	st1d	{z29.d}, p0, [x9, x0, lsl #3]
  402a40:	e5e0413f 	st1d	{z31.d}, p0, [x9, x0, lsl #3]
  402a44:	e5e04138 	st1d	{z24.d}, p0, [x9, x0, lsl #3]
  402a48:	e5e04121 	st1d	{z1.d}, p0, [x9, x0, lsl #3]
  402a4c:	f94153e1 	ldr	x1, [sp, #672]
  402a50:	65c9081a 	fmul	z26.d, z0.d, z9.d
  402a54:	a5e04024 	ld1d	{z4.d}, p0/z, [x1, x0, lsl #3]
  402a58:	65e184fa 	fmad	z26.d, p1/m, z7.d, z1.d
  402a5c:	e5e0413a 	st1d	{z26.d}, p0, [x9, x0, lsl #3]
  402a60:	f94147e1 	ldr	x1, [sp, #648]
  402a64:	a5e04023 	ld1d	{z3.d}, p0/z, [x1, x0, lsl #3]
  402a68:	65c30882 	fmul	z2.d, z4.d, z3.d
  402a6c:	65e204fa 	fmla	z26.d, p1/m, z7.d, z2.d
  402a70:	e5e0413a 	st1d	{z26.d}, p0, [x9, x0, lsl #3]
  402a74:	04f0e3e0 	incd	x0
  402a78:	f94157e1 	ldr	x1, [sp, #680]
  402a7c:	25e11c00 	whilelo	p0.d, x0, x1
  402a80:	54ffd841 	b.ne	402588 <_Z13one_iterationv._omp_fn.0+0x9a8>  // b.any
  402a84:	910f03f5 	add	x21, sp, #0x3c0
  402a88:	a9402aa6 	ldp	x6, x10, [x21]
  402a8c:	a94196a4 	ldp	x4, x5, [x21, #24]
  402a90:	8b0a0129 	add	x9, x9, x10
  402a94:	8b0a0108 	add	x8, x8, x10
  402a98:	8b0a00e7 	add	x7, x7, x10
  402a9c:	f941d3fa 	ldr	x26, [sp, #928]
  402aa0:	f941d7fb 	ldr	x27, [sp, #936]
  402aa4:	f941dbfe 	ldr	x30, [sp, #944]
  402aa8:	8b0a0358 	add	x24, x26, x10
  402aac:	f941dfe3 	ldr	x3, [sp, #952]
  402ab0:	8b0a0379 	add	x25, x27, x10
  402ab4:	f901d3f8 	str	x24, [sp, #928]
  402ab8:	f941a3f8 	ldr	x24, [sp, #832]
  402abc:	8b0a03dc 	add	x28, x30, x10
  402ac0:	f901d7f9 	str	x25, [sp, #936]
  402ac4:	f941a7f9 	ldr	x25, [sp, #840]
  402ac8:	8b0a0061 	add	x1, x3, x10
  402acc:	f901dbfc 	str	x28, [sp, #944]
  402ad0:	f941abfc 	ldr	x28, [sp, #848]
  402ad4:	f901dfe1 	str	x1, [sp, #952]
  402ad8:	f941afe1 	ldr	x1, [sp, #856]
  402adc:	8b0a033a 	add	x26, x25, x10
  402ae0:	f941b3e0 	ldr	x0, [sp, #864]
  402ae4:	8b0a039b 	add	x27, x28, x10
  402ae8:	f901a7fa 	str	x26, [sp, #840]
  402aec:	f941b7e2 	ldr	x2, [sp, #872]
  402af0:	8b0a003e 	add	x30, x1, x10
  402af4:	f901abfb 	str	x27, [sp, #848]
  402af8:	f941bbf4 	ldr	x20, [sp, #880]
  402afc:	8b0a0003 	add	x3, x0, x10
  402b00:	f901affe 	str	x30, [sp, #856]
  402b04:	f941bff1 	ldr	x17, [sp, #888]
  402b08:	8b0a0056 	add	x22, x2, x10
  402b0c:	f901b3e3 	str	x3, [sp, #864]
  402b10:	f941c3f0 	ldr	x16, [sp, #896]
  402b14:	8b0a0295 	add	x21, x20, x10
  402b18:	f901b7f6 	str	x22, [sp, #872]
  402b1c:	f941c7ed 	ldr	x13, [sp, #904]
  402b20:	8b0a0233 	add	x19, x17, x10
  402b24:	f901bbf5 	str	x21, [sp, #880]
  402b28:	f941cbee 	ldr	x14, [sp, #912]
  402b2c:	8b0a0212 	add	x18, x16, x10
  402b30:	f901bff3 	str	x19, [sp, #888]
  402b34:	f941cff7 	ldr	x23, [sp, #920]
  402b38:	8b0a01af 	add	x15, x13, x10
  402b3c:	f901c3f2 	str	x18, [sp, #896]
  402b40:	8b0a01cb 	add	x11, x14, x10
  402b44:	f901c7ef 	str	x15, [sp, #904]
  402b48:	8b0a02ec 	add	x12, x23, x10
  402b4c:	8b0a0317 	add	x23, x24, x10
  402b50:	f901cbeb 	str	x11, [sp, #912]
  402b54:	f901a3f7 	str	x23, [sp, #832]
  402b58:	f901cfec 	str	x12, [sp, #920]
  402b5c:	f9419fec 	ldr	x12, [sp, #824]
  402b60:	f94183eb 	ldr	x11, [sp, #768]
  402b64:	f94187ef 	ldr	x15, [sp, #776]
  402b68:	8b0a018e 	add	x14, x12, x10
  402b6c:	f9418bf2 	ldr	x18, [sp, #784]
  402b70:	8b0a016d 	add	x13, x11, x10
  402b74:	f9019fee 	str	x14, [sp, #824]
  402b78:	f9416bee 	ldr	x14, [sp, #720]
  402b7c:	8b0a01f0 	add	x16, x15, x10
  402b80:	f90183ed 	str	x13, [sp, #768]
  402b84:	f94167ed 	ldr	x13, [sp, #712]
  402b88:	8b0a0251 	add	x17, x18, x10
  402b8c:	f90187f0 	str	x16, [sp, #776]
  402b90:	f94163f0 	ldr	x16, [sp, #704]
  402b94:	f9018bf1 	str	x17, [sp, #784]
  402b98:	8b0a01cb 	add	x11, x14, x10
  402b9c:	f9415ff1 	ldr	x17, [sp, #696]
  402ba0:	8b0a01af 	add	x15, x13, x10
  402ba4:	f9016beb 	str	x11, [sp, #720]
  402ba8:	f9416ff7 	ldr	x23, [sp, #728]
  402bac:	8b0a0212 	add	x18, x16, x10
  402bb0:	f90167ef 	str	x15, [sp, #712]
  402bb4:	f94173fa 	ldr	x26, [sp, #736]
  402bb8:	f90163f2 	str	x18, [sp, #704]
  402bbc:	f94177fb 	ldr	x27, [sp, #744]
  402bc0:	8b0a02ec 	add	x12, x23, x10
  402bc4:	f9417bfe 	ldr	x30, [sp, #752]
  402bc8:	8b0a0358 	add	x24, x26, x10
  402bcc:	f9016fec 	str	x12, [sp, #728]
  402bd0:	f9418ff3 	ldr	x19, [sp, #792]
  402bd4:	8b0a0379 	add	x25, x27, x10
  402bd8:	f90173f8 	str	x24, [sp, #736]
  402bdc:	f94193f5 	ldr	x21, [sp, #800]
  402be0:	8b0a03dc 	add	x28, x30, x10
  402be4:	f90177f9 	str	x25, [sp, #744]
  402be8:	f94197f6 	ldr	x22, [sp, #808]
  402bec:	8b0a0274 	add	x20, x19, x10
  402bf0:	8b0a0233 	add	x19, x17, x10
  402bf4:	f9017bfc 	str	x28, [sp, #752]
  402bf8:	f9419be3 	ldr	x3, [sp, #816]
  402bfc:	8b0a02a2 	add	x2, x21, x10
  402c00:	f9015ff3 	str	x19, [sp, #696]
  402c04:	f9018ff4 	str	x20, [sp, #792]
  402c08:	8b0a02c0 	add	x0, x22, x10
  402c0c:	f90193e2 	str	x2, [sp, #800]
  402c10:	8b0a0061 	add	x1, x3, x10
  402c14:	f90197e0 	str	x0, [sp, #808]
  402c18:	f9019be1 	str	x1, [sp, #816]
  402c1c:	f9415bf4 	ldr	x20, [sp, #688]
  402c20:	f9417ff5 	ldr	x21, [sp, #760]
  402c24:	f941fbf6 	ldr	x22, [sp, #1008]
  402c28:	8b0a0282 	add	x2, x20, x10
  402c2c:	f9015be2 	str	x2, [sp, #688]
  402c30:	eb1502df 	cmp	x22, x21
  402c34:	54ffae81 	b.ne	402204 <_Z13one_iterationv._omp_fn.0+0x624>  // b.any
  402c38:	aa0a03e7 	mov	x7, x10
  402c3c:	f9420bea 	ldr	x10, [sp, #1040]
  402c40:	f9420fe0 	ldr	x0, [sp, #1048]
  402c44:	f9421be8 	ldr	x8, [sp, #1072]
  402c48:	f94207e1 	ldr	x1, [sp, #1032]
  402c4c:	f94217fe 	ldr	x30, [sp, #1064]
  402c50:	8b080149 	add	x9, x10, x8
  402c54:	8b080003 	add	x3, x0, x8
  402c58:	f9020be9 	str	x9, [sp, #1040]
  402c5c:	f9020fe3 	str	x3, [sp, #1048]
  402c60:	eb0103df 	cmp	x30, x1
  402c64:	54ff9ee8 	b.hi	402040 <_Z13one_iterationv._omp_fn.0+0x460>  // b.pmore
  402c68:	911523e1 	add	x1, sp, #0x548
  402c6c:	911503e0 	add	x0, sp, #0x540
  402c70:	97fffa5c 	bl	4015e0 <GOMP_loop_ull_nonmonotonic_dynamic_next@plt>
  402c74:	72001c1f 	tst	w0, #0xff
  402c78:	54ff7e41 	b.ne	401c40 <_Z13one_iterationv._omp_fn.0+0x60>  // b.any
  402c7c:	6d4627e8 	ldp	d8, d9, [sp, #96]
  402c80:	a94153f3 	ldp	x19, x20, [sp, #16]
  402c84:	a9425bf5 	ldp	x21, x22, [sp, #32]
  402c88:	a94363f7 	ldp	x23, x24, [sp, #48]
  402c8c:	a9446bf9 	ldp	x25, x26, [sp, #64]
  402c90:	a94573fb 	ldp	x27, x28, [sp, #80]
  402c94:	97fffa3b 	bl	401580 <GOMP_loop_end@plt>
  402c98:	f0000086 	adrp	x6, 415000 <_ZNSo3putEc@GLIBCXX_3.4>
  402c9c:	d2800024 	mov	x4, #0x1                   	// #1
  402ca0:	f94148c2 	ldr	x2, [x6, #656]
  402ca4:	911543e5 	add	x5, sp, #0x550
  402ca8:	911563e6 	add	x6, sp, #0x558
  402cac:	aa0403e3 	mov	x3, x4
  402cb0:	2a0403e0 	mov	w0, w4
  402cb4:	d2800001 	mov	x1, #0x0                   	// #0
  402cb8:	97fff9f6 	bl	401490 <GOMP_loop_ull_nonmonotonic_dynamic_start@plt>
  402cbc:	72001c1f 	tst	w0, #0xff
  402cc0:	54001480 	b.eq	402f50 <_Z13one_iterationv._omp_fn.0+0x1370>  // b.none
  402cc4:	f0000084 	adrp	x4, 415000 <_ZNSo3putEc@GLIBCXX_3.4>
  402cc8:	a90153f3 	stp	x19, x20, [sp, #16]
  402ccc:	910a4085 	add	x5, x4, #0x290
  402cd0:	a9025bf5 	stp	x21, x22, [sp, #32]
  402cd4:	a90363f7 	stp	x23, x24, [sp, #48]
  402cd8:	a9046bf9 	stp	x25, x26, [sp, #64]
  402cdc:	a90573fb 	stp	x27, x28, [sp, #80]
  402ce0:	f90047e5 	str	x5, [sp, #136]
  402ce4:	f94047fb 	ldr	x27, [sp, #136]
  402ce8:	f942afec 	ldr	x12, [sp, #1368]
  402cec:	f942abf7 	ldr	x23, [sp, #1360]
  402cf0:	a940f375 	ldp	x21, x28, [x27, #8]
  402cf4:	f9003bec 	str	x12, [sp, #112]
  402cf8:	a941eb79 	ldp	x25, x26, [x27, #24]
  402cfc:	f940176e 	ldr	x14, [x27, #40]
  402d00:	f9401f78 	ldr	x24, [x27, #56]
  402d04:	b4001135 	cbz	x21, 402f28 <_Z13one_iterationv._omp_fn.0+0x1348>
  402d08:	b400111c 	cbz	x28, 402f28 <_Z13one_iterationv._omp_fn.0+0x1348>
  402d0c:	910022eb 	add	x11, x23, #0x8
  402d10:	d37ae5cd 	lsl	x13, x14, #6
  402d14:	8b0d032f 	add	x15, x25, x13
  402d18:	8b0d0312 	add	x18, x24, x13
  402d1c:	9b1a7d70 	mul	x16, x11, x26
  402d20:	d37df39c 	lsl	x28, x28, #3
  402d24:	d37df1d3 	lsl	x19, x14, #3
  402d28:	a907bff2 	stp	x18, x15, [sp, #120]
  402d2c:	91002216 	add	x22, x16, #0x8
  402d30:	f9403fe7 	ldr	x7, [sp, #120]
  402d34:	d37df2d1 	lsl	x17, x22, #3
  402d38:	f2400aa2 	ands	x2, x21, #0x7
  402d3c:	d280001b 	mov	x27, #0x0                   	// #0
  402d40:	f94043f4 	ldr	x20, [sp, #128]
  402d44:	8b1100f9 	add	x25, x7, x17
  402d48:	8b140234 	add	x20, x17, x20
  402d4c:	54000800 	b.eq	402e4c <_Z13one_iterationv._omp_fn.0+0x126c>  // b.none
  402d50:	f100045f 	cmp	x2, #0x1
  402d54:	540006a0 	b.eq	402e28 <_Z13one_iterationv._omp_fn.0+0x1248>  // b.none
  402d58:	f100085f 	cmp	x2, #0x2
  402d5c:	54000580 	b.eq	402e0c <_Z13one_iterationv._omp_fn.0+0x122c>  // b.none
  402d60:	f1000c5f 	cmp	x2, #0x3
  402d64:	54000460 	b.eq	402df0 <_Z13one_iterationv._omp_fn.0+0x1210>  // b.none
  402d68:	f100105f 	cmp	x2, #0x4
  402d6c:	54000340 	b.eq	402dd4 <_Z13one_iterationv._omp_fn.0+0x11f4>  // b.none
  402d70:	f100145f 	cmp	x2, #0x5
  402d74:	54000220 	b.eq	402db8 <_Z13one_iterationv._omp_fn.0+0x11d8>  // b.none
  402d78:	f100185f 	cmp	x2, #0x6
  402d7c:	54000100 	b.eq	402d9c <_Z13one_iterationv._omp_fn.0+0x11bc>  // b.none
  402d80:	aa1903e1 	mov	x1, x25
  402d84:	aa1403e0 	mov	x0, x20
  402d88:	aa1c03e2 	mov	x2, x28
  402d8c:	8b130339 	add	x25, x25, x19
  402d90:	8b130294 	add	x20, x20, x19
  402d94:	d280003b 	mov	x27, #0x1                   	// #1
  402d98:	97fff972 	bl	401360 <memcpy@plt>
  402d9c:	aa1903e1 	mov	x1, x25
  402da0:	aa1403e0 	mov	x0, x20
  402da4:	aa1c03e2 	mov	x2, x28
  402da8:	9100077b 	add	x27, x27, #0x1
  402dac:	8b130339 	add	x25, x25, x19
  402db0:	8b130294 	add	x20, x20, x19
  402db4:	97fff96b 	bl	401360 <memcpy@plt>
  402db8:	aa1903e1 	mov	x1, x25
  402dbc:	aa1403e0 	mov	x0, x20
  402dc0:	aa1c03e2 	mov	x2, x28
  402dc4:	9100077b 	add	x27, x27, #0x1
  402dc8:	8b130339 	add	x25, x25, x19
  402dcc:	8b130294 	add	x20, x20, x19
  402dd0:	97fff964 	bl	401360 <memcpy@plt>
  402dd4:	aa1903e1 	mov	x1, x25
  402dd8:	aa1403e0 	mov	x0, x20
  402ddc:	aa1c03e2 	mov	x2, x28
  402de0:	9100077b 	add	x27, x27, #0x1
  402de4:	8b130339 	add	x25, x25, x19
  402de8:	8b130294 	add	x20, x20, x19
  402dec:	97fff95d 	bl	401360 <memcpy@plt>
  402df0:	aa1903e1 	mov	x1, x25
  402df4:	aa1403e0 	mov	x0, x20
  402df8:	aa1c03e2 	mov	x2, x28
  402dfc:	9100077b 	add	x27, x27, #0x1
  402e00:	8b130339 	add	x25, x25, x19
  402e04:	8b130294 	add	x20, x20, x19
  402e08:	97fff956 	bl	401360 <memcpy@plt>
  402e0c:	aa1903e1 	mov	x1, x25
  402e10:	aa1403e0 	mov	x0, x20
  402e14:	aa1c03e2 	mov	x2, x28
  402e18:	9100077b 	add	x27, x27, #0x1
  402e1c:	8b130339 	add	x25, x25, x19
  402e20:	8b130294 	add	x20, x20, x19
  402e24:	97fff94f 	bl	401360 <memcpy@plt>
  402e28:	aa1903e1 	mov	x1, x25
  402e2c:	aa1403e0 	mov	x0, x20
  402e30:	aa1c03e2 	mov	x2, x28
  402e34:	9100077b 	add	x27, x27, #0x1
  402e38:	97fff94a 	bl	401360 <memcpy@plt>
  402e3c:	8b130339 	add	x25, x25, x19
  402e40:	8b130294 	add	x20, x20, x19
  402e44:	eb15037f 	cmp	x27, x21
  402e48:	54000660 	b.eq	402f14 <_Z13one_iterationv._omp_fn.0+0x1334>  // b.none
  402e4c:	aa1903e1 	mov	x1, x25
  402e50:	aa1c03e2 	mov	x2, x28
  402e54:	aa1403e0 	mov	x0, x20
  402e58:	8b130338 	add	x24, x25, x19
  402e5c:	97fff941 	bl	401360 <memcpy@plt>
  402e60:	aa1803e1 	mov	x1, x24
  402e64:	8b130280 	add	x0, x20, x19
  402e68:	aa1c03e2 	mov	x2, x28
  402e6c:	8b130319 	add	x25, x24, x19
  402e70:	8b130014 	add	x20, x0, x19
  402e74:	9100237b 	add	x27, x27, #0x8
  402e78:	97fff93a 	bl	401360 <memcpy@plt>
  402e7c:	aa1903e1 	mov	x1, x25
  402e80:	aa1403e0 	mov	x0, x20
  402e84:	aa1c03e2 	mov	x2, x28
  402e88:	8b130334 	add	x20, x25, x19
  402e8c:	8b130019 	add	x25, x0, x19
  402e90:	8b130298 	add	x24, x20, x19
  402e94:	97fff933 	bl	401360 <memcpy@plt>
  402e98:	aa1403e1 	mov	x1, x20
  402e9c:	aa1903e0 	mov	x0, x25
  402ea0:	aa1c03e2 	mov	x2, x28
  402ea4:	8b130334 	add	x20, x25, x19
  402ea8:	97fff92e 	bl	401360 <memcpy@plt>
  402eac:	aa1803e1 	mov	x1, x24
  402eb0:	aa1403e0 	mov	x0, x20
  402eb4:	aa1c03e2 	mov	x2, x28
  402eb8:	8b130019 	add	x25, x0, x19
  402ebc:	8b130314 	add	x20, x24, x19
  402ec0:	97fff928 	bl	401360 <memcpy@plt>
  402ec4:	aa1403e1 	mov	x1, x20
  402ec8:	aa1903e0 	mov	x0, x25
  402ecc:	aa1c03e2 	mov	x2, x28
  402ed0:	8b130298 	add	x24, x20, x19
  402ed4:	97fff923 	bl	401360 <memcpy@plt>
  402ed8:	8b130334 	add	x20, x25, x19
  402edc:	aa1803e1 	mov	x1, x24
  402ee0:	aa1403e0 	mov	x0, x20
  402ee4:	aa1c03e2 	mov	x2, x28
  402ee8:	97fff91e 	bl	401360 <memcpy@plt>
  402eec:	8b130319 	add	x25, x24, x19
  402ef0:	8b130298 	add	x24, x20, x19
  402ef4:	aa1903e1 	mov	x1, x25
  402ef8:	aa1803e0 	mov	x0, x24
  402efc:	aa1c03e2 	mov	x2, x28
  402f00:	8b130339 	add	x25, x25, x19
  402f04:	97fff917 	bl	401360 <memcpy@plt>
  402f08:	8b130314 	add	x20, x24, x19
  402f0c:	eb15037f 	cmp	x27, x21
  402f10:	54fff9e1 	b.ne	402e4c <_Z13one_iterationv._omp_fn.0+0x126c>  // b.any
  402f14:	f9403bea 	ldr	x10, [sp, #112]
  402f18:	910006f7 	add	x23, x23, #0x1
  402f1c:	8b1a02d6 	add	x22, x22, x26
  402f20:	eb17015f 	cmp	x10, x23
  402f24:	54fff068 	b.hi	402d30 <_Z13one_iterationv._omp_fn.0+0x1150>  // b.pmore
  402f28:	911563e1 	add	x1, sp, #0x558
  402f2c:	911543e0 	add	x0, sp, #0x550
  402f30:	97fff9ac 	bl	4015e0 <GOMP_loop_ull_nonmonotonic_dynamic_next@plt>
  402f34:	72001c1f 	tst	w0, #0xff
  402f38:	54ffed61 	b.ne	402ce4 <_Z13one_iterationv._omp_fn.0+0x1104>  // b.any
  402f3c:	a94153f3 	ldp	x19, x20, [sp, #16]
  402f40:	a9425bf5 	ldp	x21, x22, [sp, #32]
  402f44:	a94363f7 	ldp	x23, x24, [sp, #48]
  402f48:	a9446bf9 	ldp	x25, x26, [sp, #64]
  402f4c:	a94573fb 	ldp	x27, x28, [sp, #80]
  402f50:	97fff918 	bl	4013b0 <GOMP_loop_end_nowait@plt>
  402f54:	a9407bfd 	ldp	x29, x30, [sp]
  402f58:	911583ff 	add	sp, sp, #0x560
  402f5c:	d65f03c0 	ret
  402f60:	f941dbe1 	ldr	x1, [sp, #944]
  402f64:	910b43fe 	add	x30, sp, #0x2d0
  402f68:	910d23e0 	add	x0, sp, #0x348
  402f6c:	910ac3f4 	add	x20, sp, #0x2b0
  402f70:	a94047d2 	ldp	x18, x17, [x30]
  402f74:	a9405696 	ldp	x22, x21, [x20]
  402f78:	a9413fd0 	ldp	x16, x15, [x30, #16]
  402f7c:	910da3fe 	add	x30, sp, #0x368
  402f80:	a9414e94 	ldp	x20, x19, [x20, #16]
  402f84:	f941f7fc 	ldr	x28, [sp, #1000]
  402f88:	f94183f7 	ldr	x23, [sp, #768]
  402f8c:	f94187f8 	ldr	x24, [sp, #776]
  402f90:	8b01039b 	add	x27, x28, x1
  402f94:	f9418bf9 	ldr	x25, [sp, #784]
  402f98:	f9004bf7 	str	x23, [sp, #144]
  402f9c:	f9418ffa 	ldr	x26, [sp, #792]
  402fa0:	f90047f8 	str	x24, [sp, #136]
  402fa4:	f9419fe3 	ldr	x3, [sp, #824]
  402fa8:	f90043f9 	str	x25, [sp, #128]
  402fac:	f941a3e2 	ldr	x2, [sp, #832]
  402fb0:	f9003ffa 	str	x26, [sp, #120]
  402fb4:	f9005ffb 	str	x27, [sp, #184]
  402fb8:	f9004fe3 	str	x3, [sp, #152]
  402fbc:	6d40d4f6 	ldp	d22, d21, [x7, #8]
  402fc0:	f9003be2 	str	x2, [sp, #112]
  402fc4:	6d40cd14 	ldp	d20, d19, [x8, #8]
  402fc8:	fd400d12 	ldr	d18, [x8, #24]
  402fcc:	f9417bee 	ldr	x14, [sp, #752]
  402fd0:	f94193eb 	ldr	x11, [sp, #800]
  402fd4:	1e760a9b 	fmul	d27, d20, d22
  402fd8:	1e750a79 	fmul	d25, d19, d21
  402fdc:	f94197ec 	ldr	x12, [sp, #808]
  402fe0:	f9419bed 	ldr	x13, [sp, #816]
  402fe4:	6d41c0f1 	ldp	d17, d16, [x7, #24]
  402fe8:	a9405c02 	ldp	x2, x23, [x0]
  402fec:	a9416418 	ldp	x24, x25, [x0, #16]
  402ff0:	1e710a58 	fmul	d24, d18, d17
  402ff4:	a9406fda 	ldp	x26, x27, [x30]
  402ff8:	a9417bdc 	ldp	x28, x30, [x30, #16]
  402ffc:	f941c7e3 	ldr	x3, [sp, #904]
  403000:	6d42751c 	ldp	d28, d29, [x8, #32]
  403004:	fd4014e7 	ldr	d7, [x7, #40]
  403008:	a90c0fe2 	stp	x2, x3, [sp, #192]
  40300c:	aa0703e3 	mov	x3, x7
  403010:	f941cfe2 	ldr	x2, [sp, #920]
  403014:	1e700b96 	fmul	d22, d28, d16
  403018:	6d437d1e 	ldp	d30, d31, [x8, #48]
  40301c:	1e670bb5 	fmul	d21, d29, d7
  403020:	6d4300e6 	ldp	d6, d0, [x7, #48]
  403024:	f90053e2 	str	x2, [sp, #160]
  403028:	f941d3e2 	ldr	x2, [sp, #928]
  40302c:	f941cbe0 	ldr	x0, [sp, #912]
  403030:	1e660bd4 	fmul	d20, d30, d6
  403034:	6d44a105 	ldp	d5, d8, [x8, #72]
  403038:	1e600be6 	fmul	d6, d31, d0
  40303c:	f90057e2 	str	x2, [sp, #168]
  403040:	f941d7e2 	ldr	x2, [sp, #936]
  403044:	f9006be0 	str	x0, [sp, #208]
  403048:	fd4024e1 	ldr	d1, [x7, #72]
  40304c:	f941dfe0 	ldr	x0, [sp, #952]
  403050:	f9005be2 	str	x2, [sp, #176]
  403054:	aa0803e2 	mov	x2, x8
  403058:	6d4510e9 	ldp	d9, d4, [x7, #80]
  40305c:	a90da3e7 	stp	x7, x8, [sp, #216]
  403060:	1e6108ba 	fmul	d26, d5, d1
  403064:	6d45c512 	ldp	d18, d17, [x8, #88]
  403068:	f90077e9 	str	x9, [sp, #232]
  40306c:	fd4030e2 	ldr	d2, [x7, #96]
  403070:	1e690913 	fmul	d19, d8, d9
  403074:	6d469d10 	ldp	d16, d7, [x8, #104]
  403078:	fd4034fc 	ldr	d28, [x7, #104]
  40307c:	1e640a52 	fmul	d18, d18, d4
  403080:	fd4038e3 	ldr	d3, [x7, #112]
  403084:	1e620a31 	fmul	d17, d17, d2
  403088:	fd403cfd 	ldr	d29, [x7, #120]
  40308c:	fd403d1e 	ldr	d30, [x8, #120]
  403090:	1e7c0a10 	fmul	d16, d16, d28
  403094:	a94c27e8 	ldp	x8, x9, [sp, #192]
  403098:	1e6308e7 	fmul	d7, d7, d3
  40309c:	f90063ea 	str	x10, [sp, #192]
  4030a0:	f9406bea 	ldr	x10, [sp, #208]
  4030a4:	1e7d0bc0 	fmul	d0, d30, d29
  4030a8:	f9403be7 	ldr	x7, [sp, #112]
  4030ac:	f9003be2 	str	x2, [sp, #112]
  4030b0:	f9403be2 	ldr	x2, [sp, #112]
  4030b4:	1e6040dc 	fmov	d28, d6
  4030b8:	91002000 	add	x0, x0, #0x8
  4030bc:	fd402068 	ldr	d8, [x3, #64]
  4030c0:	fc6168bf 	ldr	d31, [x5, x1]
  4030c4:	fd402046 	ldr	d6, [x2, #64]
  4030c8:	fc616885 	ldr	d5, [x4, x1]
  4030cc:	91002021 	add	x1, x1, #0x8
  4030d0:	f9405be2 	ldr	x2, [sp, #176]
  4030d4:	1e660906 	fmul	d6, d8, d6
  4030d8:	fc6a68a3 	ldr	d3, [x5, x10]
  4030dc:	1e650be9 	fmul	d9, d31, d5
  4030e0:	fc6268a4 	ldr	d4, [x5, x2]
  4030e4:	fc626881 	ldr	d1, [x4, x2]
  4030e8:	91002042 	add	x2, x2, #0x8
  4030ec:	fd001c06 	str	d6, [x0, #56]
  4030f0:	fd4004c2 	ldr	d2, [x6, #8]
  4030f4:	f9005be2 	str	x2, [sp, #176]
  4030f8:	f94057e2 	ldr	x2, [sp, #168]
  4030fc:	1e610885 	fmul	d5, d4, d1
  403100:	1e621b5d 	fdiv	d29, d26, d2
  403104:	1e60427a 	fmov	d26, d19
  403108:	fc6268a4 	ldr	d4, [x5, x2]
  40310c:	fc626882 	ldr	d2, [x4, x2]
  403110:	91002042 	add	x2, x2, #0x8
  403114:	f90057e2 	str	x2, [sp, #168]
  403118:	f94053e2 	ldr	x2, [sp, #160]
  40311c:	1e662bbf 	fadd	d31, d29, d6
  403120:	fc6a689d 	ldr	d29, [x4, x10]
  403124:	9100214a 	add	x10, x10, #0x8
  403128:	fd001c1f 	str	d31, [x0, #56]
  40312c:	fd4004de 	ldr	d30, [x6, #8]
  403130:	1e7e1b88 	fdiv	d8, d28, d30
  403134:	1e7d087e 	fmul	d30, d3, d29
  403138:	1e7f2901 	fadd	d1, d8, d31
  40313c:	1e62089f 	fmul	d31, d4, d2
  403140:	fd001c01 	str	d1, [x0, #56]
  403144:	fd4004c3 	ldr	d3, [x6, #8]
  403148:	1e631929 	fdiv	d9, d9, d3
  40314c:	fc6268a3 	ldr	d3, [x5, x2]
  403150:	1e612921 	fadd	d1, d9, d1
  403154:	fd001c01 	str	d1, [x0, #56]
  403158:	fd4004c8 	ldr	d8, [x6, #8]
  40315c:	1e6818a5 	fdiv	d5, d5, d8
  403160:	1e6128a2 	fadd	d2, d5, d1
  403164:	fc626881 	ldr	d1, [x4, x2]
  403168:	91002042 	add	x2, x2, #0x8
  40316c:	f90053e2 	str	x2, [sp, #160]
  403170:	fd001c02 	str	d2, [x0, #56]
  403174:	1e610868 	fmul	d8, d3, d1
  403178:	fd4004c4 	ldr	d4, [x6, #8]
  40317c:	fc6968a1 	ldr	d1, [x5, x9]
  403180:	1e641bff 	fdiv	d31, d31, d4
  403184:	1e622bfd 	fadd	d29, d31, d2
  403188:	fd001c1d 	str	d29, [x0, #56]
  40318c:	fd4004c9 	ldr	d9, [x6, #8]
  403190:	1e691905 	fdiv	d5, d8, d9
  403194:	1e7d28a2 	fadd	d2, d5, d29
  403198:	fd001c02 	str	d2, [x0, #56]
  40319c:	fd4008c4 	ldr	d4, [x6, #16]
  4031a0:	fc7e68bd 	ldr	d29, [x5, x30]
  4031a4:	fc7c68a5 	ldr	d5, [x5, x28]
  4031a8:	1e641a7f 	fdiv	d31, d19, d4
  4031ac:	fc796889 	ldr	d9, [x4, x25]
  4031b0:	1e604253 	fmov	d19, d18
  4031b4:	fc786888 	ldr	d8, [x4, x24]
  4031b8:	1e622be2 	fadd	d2, d31, d2
  4031bc:	fd001c02 	str	d2, [x0, #56]
  4031c0:	fd4008c3 	ldr	d3, [x6, #16]
  4031c4:	1e631a84 	fdiv	d4, d20, d3
  4031c8:	fc696883 	ldr	d3, [x4, x9]
  4031cc:	91002129 	add	x9, x9, #0x8
  4031d0:	1e62289f 	fadd	d31, d4, d2
  4031d4:	fc7b68a4 	ldr	d4, [x5, x27]
  4031d8:	fd001c1f 	str	d31, [x0, #56]
  4031dc:	fd4008c2 	ldr	d2, [x6, #16]
  4031e0:	1e621bde 	fdiv	d30, d30, d2
  4031e4:	fc7c6882 	ldr	d2, [x4, x28]
  4031e8:	9100239c 	add	x28, x28, #0x8
  4031ec:	1e6208a5 	fmul	d5, d5, d2
  4031f0:	fc7a6882 	ldr	d2, [x4, x26]
  4031f4:	1e7f2bdf 	fadd	d31, d30, d31
  4031f8:	1e63083e 	fmul	d30, d1, d3
  4031fc:	fc7b6883 	ldr	d3, [x4, x27]
  403200:	9100237b 	add	x27, x27, #0x8
  403204:	fc7e6881 	ldr	d1, [x4, x30]
  403208:	910023de 	add	x30, x30, #0x8
  40320c:	1e630884 	fmul	d4, d4, d3
  403210:	fd001c1f 	str	d31, [x0, #56]
  403214:	fd4008c3 	ldr	d3, [x6, #16]
  403218:	1e610bbd 	fmul	d29, d29, d1
  40321c:	fc7968a1 	ldr	d1, [x5, x25]
  403220:	91002339 	add	x25, x25, #0x8
  403224:	1e631bde 	fdiv	d30, d30, d3
  403228:	1e690829 	fmul	d9, d1, d9
  40322c:	fc7a68a1 	ldr	d1, [x5, x26]
  403230:	9100235a 	add	x26, x26, #0x8
  403234:	1e620823 	fmul	d3, d1, d2
  403238:	fc7868a2 	ldr	d2, [x5, x24]
  40323c:	91002318 	add	x24, x24, #0x8
  403240:	1e7f2bdf 	fadd	d31, d30, d31
  403244:	1e68085e 	fmul	d30, d2, d8
  403248:	fd001c1f 	str	d31, [x0, #56]
  40324c:	fd4008c8 	ldr	d8, [x6, #16]
  403250:	1e681bbd 	fdiv	d29, d29, d8
  403254:	1e7f2ba1 	fadd	d1, d29, d31
  403258:	fd001c01 	str	d1, [x0, #56]
  40325c:	fd4008c2 	ldr	d2, [x6, #16]
  403260:	1e6218a5 	fdiv	d5, d5, d2
  403264:	1e6128bf 	fadd	d31, d5, d1
  403268:	fd001c1f 	str	d31, [x0, #56]
  40326c:	fd400cc8 	ldr	d8, [x6, #24]
  403270:	1e681a5d 	fdiv	d29, d18, d8
  403274:	1e604232 	fmov	d18, d17
  403278:	1e7f2ba1 	fadd	d1, d29, d31
  40327c:	fd001c01 	str	d1, [x0, #56]
  403280:	fd400cc2 	ldr	d2, [x6, #24]
  403284:	1e621aa5 	fdiv	d5, d21, d2
  403288:	1e6128bf 	fadd	d31, d5, d1
  40328c:	fd001c1f 	str	d31, [x0, #56]
  403290:	fd400cc8 	ldr	d8, [x6, #24]
  403294:	1e681884 	fdiv	d4, d4, d8
  403298:	1e7f289d 	fadd	d29, d4, d31
  40329c:	fd001c1d 	str	d29, [x0, #56]
  4032a0:	fd400cc1 	ldr	d1, [x6, #24]
  4032a4:	1e611863 	fdiv	d3, d3, d1
  4032a8:	1e7d2862 	fadd	d2, d3, d29
  4032ac:	fd001c02 	str	d2, [x0, #56]
  4032b0:	fd400cc8 	ldr	d8, [x6, #24]
  4032b4:	f9404fe2 	ldr	x2, [sp, #152]
  4032b8:	fc6868a5 	ldr	d5, [x5, x8]
  4032bc:	1e681929 	fdiv	d9, d9, d8
  4032c0:	fc686888 	ldr	d8, [x4, x8]
  4032c4:	91002108 	add	x8, x8, #0x8
  4032c8:	fc626881 	ldr	d1, [x4, x2]
  4032cc:	fc7768bf 	ldr	d31, [x5, x23]
  4032d0:	1e6808a5 	fmul	d5, d5, d8
  4032d4:	fc6768a4 	ldr	d4, [x5, x7]
  4032d8:	1e62293d 	fadd	d29, d9, d2
  4032dc:	fc6268a9 	ldr	d9, [x5, x2]
  4032e0:	91002042 	add	x2, x2, #0x8
  4032e4:	f9004fe2 	str	x2, [sp, #152]
  4032e8:	f9404be2 	ldr	x2, [sp, #144]
  4032ec:	fd001c1d 	str	d29, [x0, #56]
  4032f0:	fd400cc3 	ldr	d3, [x6, #24]
  4032f4:	1e631bde 	fdiv	d30, d30, d3
  4032f8:	1e610923 	fmul	d3, d9, d1
  4032fc:	1e7d2bc2 	fadd	d2, d30, d29
  403300:	fc77689e 	ldr	d30, [x4, x23]
  403304:	910022f7 	add	x23, x23, #0x8
  403308:	fd001c02 	str	d2, [x0, #56]
  40330c:	fd4010dd 	ldr	d29, [x6, #32]
  403310:	1e7d1a21 	fdiv	d1, d17, d29
  403314:	1e7e0bfd 	fmul	d29, d31, d30
  403318:	fc67689f 	ldr	d31, [x4, x7]
  40331c:	1e604211 	fmov	d17, d16
  403320:	910020e7 	add	x7, x7, #0x8
  403324:	fc62689e 	ldr	d30, [x4, x2]
  403328:	1e7f0884 	fmul	d4, d4, d31
  40332c:	1e622828 	fadd	d8, d1, d2
  403330:	fd001c08 	str	d8, [x0, #56]
  403334:	fd4010c2 	ldr	d2, [x6, #32]
  403338:	1e621ac9 	fdiv	d9, d22, d2
  40333c:	1e682921 	fadd	d1, d9, d8
  403340:	fc6268a8 	ldr	d8, [x5, x2]
  403344:	91002042 	add	x2, x2, #0x8
  403348:	f9004be2 	str	x2, [sp, #144]
  40334c:	f94047e2 	ldr	x2, [sp, #136]
  403350:	fd001c01 	str	d1, [x0, #56]
  403354:	1e7e0902 	fmul	d2, d8, d30
  403358:	fd4010df 	ldr	d31, [x6, #32]
  40335c:	fc626888 	ldr	d8, [x4, x2]
  403360:	1e7f1bbd 	fdiv	d29, d29, d31
  403364:	1e612ba9 	fadd	d9, d29, d1
  403368:	fc6268a1 	ldr	d1, [x5, x2]
  40336c:	91002042 	add	x2, x2, #0x8
  403370:	f90047e2 	str	x2, [sp, #136]
  403374:	f94043e2 	ldr	x2, [sp, #128]
  403378:	fd001c09 	str	d9, [x0, #56]
  40337c:	1e680821 	fmul	d1, d1, d8
  403380:	fc62689f 	ldr	d31, [x4, x2]
  403384:	fc6268be 	ldr	d30, [x5, x2]
  403388:	91002042 	add	x2, x2, #0x8
  40338c:	f90043e2 	str	x2, [sp, #128]
  403390:	fd4010dd 	ldr	d29, [x6, #32]
  403394:	f9403fe2 	ldr	x2, [sp, #120]
  403398:	1e7f0bde 	fmul	d30, d30, d31
  40339c:	fc6d689f 	ldr	d31, [x4, x13]
  4033a0:	1e7d18a5 	fdiv	d5, d5, d29
  4033a4:	fc6268bd 	ldr	d29, [x5, x2]
  4033a8:	1e6928a9 	fadd	d9, d5, d9
  4033ac:	fd001c09 	str	d9, [x0, #56]
  4033b0:	fd4010c8 	ldr	d8, [x6, #32]
  4033b4:	1e681884 	fdiv	d4, d4, d8
  4033b8:	fc6e6888 	ldr	d8, [x4, x14]
  4033bc:	1e692889 	fadd	d9, d4, d9
  4033c0:	fd001c09 	str	d9, [x0, #56]
  4033c4:	fd4010c5 	ldr	d5, [x6, #32]
  4033c8:	1e651863 	fdiv	d3, d3, d5
  4033cc:	fc6b68a5 	ldr	d5, [x5, x11]
  4033d0:	1e692869 	fadd	d9, d3, d9
  4033d4:	fd001c09 	str	d9, [x0, #56]
  4033d8:	fd4014c4 	ldr	d4, [x6, #40]
  4033dc:	1e641a03 	fdiv	d3, d16, d4
  4033e0:	1e6040f0 	fmov	d16, d7
  4033e4:	1e692869 	fadd	d9, d3, d9
  4033e8:	fd001c09 	str	d9, [x0, #56]
  4033ec:	fd4014c4 	ldr	d4, [x6, #40]
  4033f0:	1e641b03 	fdiv	d3, d24, d4
  4033f4:	1e692869 	fadd	d9, d3, d9
  4033f8:	fd001c09 	str	d9, [x0, #56]
  4033fc:	fd4014c4 	ldr	d4, [x6, #40]
  403400:	1e641842 	fdiv	d2, d2, d4
  403404:	fc6c68a4 	ldr	d4, [x5, x12]
  403408:	1e692849 	fadd	d9, d2, d9
  40340c:	fd001c09 	str	d9, [x0, #56]
  403410:	fd4014c3 	ldr	d3, [x6, #40]
  403414:	1e631821 	fdiv	d1, d1, d3
  403418:	fc6c6883 	ldr	d3, [x4, x12]
  40341c:	9100218c 	add	x12, x12, #0x8
  403420:	1e630884 	fmul	d4, d4, d3
  403424:	fc6b6883 	ldr	d3, [x4, x11]
  403428:	9100216b 	add	x11, x11, #0x8
  40342c:	1e6308a5 	fmul	d5, d5, d3
  403430:	1e692822 	fadd	d2, d1, d9
  403434:	fc626889 	ldr	d9, [x4, x2]
  403438:	91002042 	add	x2, x2, #0x8
  40343c:	fc6e68a1 	ldr	d1, [x5, x14]
  403440:	910021ce 	add	x14, x14, #0x8
  403444:	f9003fe2 	str	x2, [sp, #120]
  403448:	1e690bbd 	fmul	d29, d29, d9
  40344c:	fd001c02 	str	d2, [x0, #56]
  403450:	1e680829 	fmul	d9, d1, d8
  403454:	fd4014c8 	ldr	d8, [x6, #40]
  403458:	fc6d68a1 	ldr	d1, [x5, x13]
  40345c:	910021ad 	add	x13, x13, #0x8
  403460:	1e681bde 	fdiv	d30, d30, d8
  403464:	1e7f0823 	fmul	d3, d1, d31
  403468:	fc6f689f 	ldr	d31, [x4, x15]
  40346c:	1e622bde 	fadd	d30, d30, d2
  403470:	fc6f68a2 	ldr	d2, [x5, x15]
  403474:	910021ef 	add	x15, x15, #0x8
  403478:	fd001c1e 	str	d30, [x0, #56]
  40347c:	1e7f0842 	fmul	d2, d2, d31
  403480:	fd4014c8 	ldr	d8, [x6, #40]
  403484:	1e681bbd 	fdiv	d29, d29, d8
  403488:	1e7e2ba1 	fadd	d1, d29, d30
  40348c:	fd001c01 	str	d1, [x0, #56]
  403490:	fd4018de 	ldr	d30, [x6, #48]
  403494:	f9403be2 	ldr	x2, [sp, #112]
  403498:	1e7e18ff 	fdiv	d31, d7, d30
  40349c:	1e604007 	fmov	d7, d0
  4034a0:	1e612be8 	fadd	d8, d31, d1
  4034a4:	fd001c08 	str	d8, [x0, #56]
  4034a8:	fd4018dd 	ldr	d29, [x6, #48]
  4034ac:	1e7d1b21 	fdiv	d1, d25, d29
  4034b0:	fc7068bd 	ldr	d29, [x5, x16]
  4034b4:	1e68283e 	fadd	d30, d1, d8
  4034b8:	fd001c1e 	str	d30, [x0, #56]
  4034bc:	fd4018df 	ldr	d31, [x6, #48]
  4034c0:	1e7f18a5 	fdiv	d5, d5, d31
  4034c4:	fd40405f 	ldr	d31, [x2, #128]
  4034c8:	1e7e28a1 	fadd	d1, d5, d30
  4034cc:	fd001c01 	str	d1, [x0, #56]
  4034d0:	fd4018c8 	ldr	d8, [x6, #48]
  4034d4:	1e681884 	fdiv	d4, d4, d8
  4034d8:	fc7168a8 	ldr	d8, [x5, x17]
  4034dc:	1e61289e 	fadd	d30, d4, d1
  4034e0:	fd001c1e 	str	d30, [x0, #56]
  4034e4:	fd4018c5 	ldr	d5, [x6, #48]
  4034e8:	1e651863 	fdiv	d3, d3, d5
  4034ec:	1e7e2861 	fadd	d1, d3, d30
  4034f0:	fc706883 	ldr	d3, [x4, x16]
  4034f4:	91002210 	add	x16, x16, #0x8
  4034f8:	fd001c01 	str	d1, [x0, #56]
  4034fc:	1e630bbd 	fmul	d29, d29, d3
  403500:	fd4018c4 	ldr	d4, [x6, #48]
  403504:	fc408443 	ldr	d3, [x2], #8
  403508:	1e641929 	fdiv	d9, d9, d4
  40350c:	f9003be2 	str	x2, [sp, #112]
  403510:	1e61293e 	fadd	d30, d9, d1
  403514:	fc726889 	ldr	d9, [x4, x18]
  403518:	fd001c1e 	str	d30, [x0, #56]
  40351c:	fd401cc5 	ldr	d5, [x6, #56]
  403520:	1e651800 	fdiv	d0, d0, d5
  403524:	1e7e2804 	fadd	d4, d0, d30
  403528:	fc716880 	ldr	d0, [x4, x17]
  40352c:	91002231 	add	x17, x17, #0x8
  403530:	fd001c04 	str	d4, [x0, #56]
  403534:	fd401cc1 	ldr	d1, [x6, #56]
  403538:	1e611b7e 	fdiv	d30, d27, d1
  40353c:	1e60433b 	fmov	d27, d25
  403540:	fc736881 	ldr	d1, [x4, x19]
  403544:	1e604319 	fmov	d25, d24
  403548:	1e6042d8 	fmov	d24, d22
  40354c:	1e6042b6 	fmov	d22, d21
  403550:	1e604295 	fmov	d21, d20
  403554:	1e604394 	fmov	d20, d28
  403558:	fc7268bc 	ldr	d28, [x5, x18]
  40355c:	91002252 	add	x18, x18, #0x8
  403560:	1e690b89 	fmul	d9, d28, d9
  403564:	1e60091c 	fmul	d28, d8, d0
  403568:	fc7368a8 	ldr	d8, [x5, x19]
  40356c:	91002273 	add	x19, x19, #0x8
  403570:	1e642bc4 	fadd	d4, d30, d4
  403574:	1e610901 	fmul	d1, d8, d1
  403578:	fd001c04 	str	d4, [x0, #56]
  40357c:	fd401cc5 	ldr	d5, [x6, #56]
  403580:	1e651842 	fdiv	d2, d2, d5
  403584:	fd404065 	ldr	d5, [x3, #128]
  403588:	1e7f08a0 	fmul	d0, d5, d31
  40358c:	fc7468bf 	ldr	d31, [x5, x20]
  403590:	1e64285e 	fadd	d30, d2, d4
  403594:	fc408464 	ldr	d4, [x3], #8
  403598:	fd001c1e 	str	d30, [x0, #56]
  40359c:	1e630884 	fmul	d4, d4, d3
  4035a0:	fd401cc5 	ldr	d5, [x6, #56]
  4035a4:	fc746883 	ldr	d3, [x4, x20]
  4035a8:	91002294 	add	x20, x20, #0x8
  4035ac:	fc7568a2 	ldr	d2, [x5, x21]
  4035b0:	1e651bbd 	fdiv	d29, d29, d5
  4035b4:	f9405fe2 	ldr	x2, [sp, #184]
  4035b8:	1e630be8 	fmul	d8, d31, d3
  4035bc:	fc75689f 	ldr	d31, [x4, x21]
  4035c0:	910022b5 	add	x21, x21, #0x8
  4035c4:	1e7f0842 	fmul	d2, d2, d31
  4035c8:	1e7e2ba3 	fadd	d3, d29, d30
  4035cc:	fd001c03 	str	d3, [x0, #56]
  4035d0:	fd401cde 	ldr	d30, [x6, #56]
  4035d4:	1e7e1b9c 	fdiv	d28, d28, d30
  4035d8:	1e632b85 	fadd	d5, d28, d3
  4035dc:	fd001c05 	str	d5, [x0, #56]
  4035e0:	fd401cdd 	ldr	d29, [x6, #56]
  4035e4:	1e7d1929 	fdiv	d9, d9, d29
  4035e8:	1e65293f 	fadd	d31, d9, d5
  4035ec:	fd001c1f 	str	d31, [x0, #56]
  4035f0:	fd4020c3 	ldr	d3, [x6, #64]
  4035f4:	1e63181e 	fdiv	d30, d0, d3
  4035f8:	1e7f2bc5 	fadd	d5, d30, d31
  4035fc:	fd001c05 	str	d5, [x0, #56]
  403600:	fd4020dc 	ldr	d28, [x6, #64]
  403604:	1e7c1884 	fdiv	d4, d4, d28
  403608:	fc76689c 	ldr	d28, [x4, x22]
  40360c:	1e65289d 	fadd	d29, d4, d5
  403610:	fc7668a5 	ldr	d5, [x5, x22]
  403614:	910022d6 	add	x22, x22, #0x8
  403618:	fd001c1d 	str	d29, [x0, #56]
  40361c:	1e7c08a4 	fmul	d4, d5, d28
  403620:	fd4020c9 	ldr	d9, [x6, #64]
  403624:	1e691821 	fdiv	d1, d1, d9
  403628:	1e7d283f 	fadd	d31, d1, d29
  40362c:	fd001c1f 	str	d31, [x0, #56]
  403630:	fd4020c3 	ldr	d3, [x6, #64]
  403634:	1e631908 	fdiv	d8, d8, d3
  403638:	1e7f291e 	fadd	d30, d8, d31
  40363c:	fd001c1e 	str	d30, [x0, #56]
  403640:	fd4020dd 	ldr	d29, [x6, #64]
  403644:	1e7d1842 	fdiv	d2, d2, d29
  403648:	1e7e2849 	fadd	d9, d2, d30
  40364c:	fd001c09 	str	d9, [x0, #56]
  403650:	fd4020c1 	ldr	d1, [x6, #64]
  403654:	1e61189f 	fdiv	d31, d4, d1
  403658:	1e692be3 	fadd	d3, d31, d9
  40365c:	fd001c03 	str	d3, [x0, #56]
  403660:	eb02003f 	cmp	x1, x2
  403664:	54ffd261 	b.ne	4030b0 <_Z13one_iterationv._omp_fn.0+0x14d0>  // b.any
  403668:	f94063ea 	ldr	x10, [sp, #192]
  40366c:	a94da3e7 	ldp	x7, x8, [sp, #216]
  403670:	f94077e9 	ldr	x9, [sp, #232]
  403674:	17fffd07 	b	402a90 <_Z13one_iterationv._omp_fn.0+0xeb0>
  403678:	d503201f 	nop
  40367c:	d503201f 	nop

0000000000403680 <_Z10dml_microsv>:
  403680:	a9be7bfd 	stp	x29, x30, [sp, #-32]!
  403684:	910003fd 	mov	x29, sp
  403688:	f9000bf3 	str	x19, [sp, #16]
  40368c:	d0000093 	adrp	x19, 415000 <_ZNSo3putEc@GLIBCXX_3.4>
  403690:	910a4273 	add	x19, x19, #0x290
  403694:	91016261 	add	x1, x19, #0x58
  403698:	91018260 	add	x0, x19, #0x60
  40369c:	97fff769 	bl	401440 <gettimeofday@plt>
  4036a0:	d2d09000 	mov	x0, #0x848000000000        	// #145685290680320
  4036a4:	6d460660 	ldp	d0, d1, [x19, #96]
  4036a8:	f2e825c0 	movk	x0, #0x412e, lsl #48
  4036ac:	f9400bf3 	ldr	x19, [sp, #16]
  4036b0:	9e670002 	fmov	d2, x0
  4036b4:	a8c27bfd 	ldp	x29, x30, [sp], #32
  4036b8:	5e61d803 	scvtf	d3, d0
  4036bc:	5e61d824 	scvtf	d4, d1
  4036c0:	1f421060 	fmadd	d0, d3, d2, d4
  4036c4:	d65f03c0 	ret

00000000004036c8 <_Z13one_iterationv>:
  4036c8:	d0ffffe0 	adrp	x0, 401000 <_init-0x310>
  4036cc:	52800003 	mov	w3, #0x0                   	// #0
  4036d0:	912f8000 	add	x0, x0, #0xbe0
  4036d4:	52800002 	mov	w2, #0x0                   	// #0
  4036d8:	d2800001 	mov	x1, #0x0                   	// #0
  4036dc:	17fff795 	b	401530 <GOMP_parallel@plt>

00000000004036e0 <_Z4initv>:
  4036e0:	d0000081 	adrp	x1, 415000 <_ZNSo3putEc@GLIBCXX_3.4>
  4036e4:	a9b27bfd 	stp	x29, x30, [sp, #-224]!
  4036e8:	910003fd 	mov	x29, sp
  4036ec:	910a4022 	add	x2, x1, #0x290
  4036f0:	d2800800 	mov	x0, #0x40                  	// #64
  4036f4:	a90153f3 	stp	x19, x20, [sp, #16]
  4036f8:	f9403853 	ldr	x19, [x2, #112]
  4036fc:	d37df274 	lsl	x20, x19, #3
  403700:	aa1403e1 	mov	x1, x20
  403704:	97fff727 	bl	4013a0 <aligned_alloc@plt>
  403708:	d0000083 	adrp	x3, 415000 <_ZNSo3putEc@GLIBCXX_3.4>
  40370c:	910a4064 	add	x4, x3, #0x290
  403710:	f9000c80 	str	x0, [x4, #24]
  403714:	b40039e0 	cbz	x0, 403e50 <_Z4initv+0x770>
  403718:	aa1403e1 	mov	x1, x20
  40371c:	d2800800 	mov	x0, #0x40                  	// #64
  403720:	97fff720 	bl	4013a0 <aligned_alloc@plt>
  403724:	d0000087 	adrp	x7, 415000 <_ZNSo3putEc@GLIBCXX_3.4>
  403728:	910a40e8 	add	x8, x7, #0x290
  40372c:	f9001900 	str	x0, [x8, #48]
  403730:	b4003cc0 	cbz	x0, 403ec8 <_Z4initv+0x7e8>
  403734:	aa1403e1 	mov	x1, x20
  403738:	d2800800 	mov	x0, #0x40                  	// #64
  40373c:	97fff719 	bl	4013a0 <aligned_alloc@plt>
  403740:	d000008c 	adrp	x12, 415000 <_ZNSo3putEc@GLIBCXX_3.4>
  403744:	910a418d 	add	x13, x12, #0x290
  403748:	f9001da0 	str	x0, [x13, #56]
  40374c:	b4003a00 	cbz	x0, 403e8c <_Z4initv+0x7ac>
  403750:	d0000091 	adrp	x17, 415000 <_ZNSo3putEc@GLIBCXX_3.4>
  403754:	1e6e1000 	fmov	d0, #1.000000000000000000e+00
  403758:	910a4232 	add	x18, x17, #0x290
  40375c:	91010253 	add	x19, x18, #0x40
  403760:	a9408662 	ldp	x2, x1, [x19, #8]
  403764:	fd006fe0 	str	d0, [sp, #216]
  403768:	eb01005f 	cmp	x2, x1
  40376c:	54003340 	b.eq	403dd4 <_Z4initv+0x6f4>  // b.none
  403770:	fc008440 	str	d0, [x2], #8
  403774:	f9000662 	str	x2, [x19, #8]
  403778:	d0000083 	adrp	x3, 415000 <_ZNSo3putEc@GLIBCXX_3.4>
  40377c:	1e663001 	fmov	d1, #1.700000000000000000e+01
  403780:	d000009e 	adrp	x30, 415000 <_ZNSo3putEc@GLIBCXX_3.4>
  403784:	910a4064 	add	x4, x3, #0x290
  403788:	910a43d4 	add	x20, x30, #0x290
  40378c:	f9402085 	ldr	x5, [x4, #64]
  403790:	91010280 	add	x0, x20, #0x40
  403794:	fd4000a2 	ldr	d2, [x5]
  403798:	1e610843 	fmul	d3, d2, d1
  40379c:	fd006fe3 	str	d3, [sp, #216]
  4037a0:	eb02003f 	cmp	x1, x2
  4037a4:	54003220 	b.eq	403de8 <_Z4initv+0x708>  // b.none
  4037a8:	fc008443 	str	d3, [x2], #8
  4037ac:	f9000402 	str	x2, [x0, #8]
  4037b0:	d0000081 	adrp	x1, 415000 <_ZNSo3putEc@GLIBCXX_3.4>
  4037b4:	1e663004 	fmov	d4, #1.700000000000000000e+01
  4037b8:	d0000080 	adrp	x0, 415000 <_ZNSo3putEc@GLIBCXX_3.4>
  4037bc:	910a4026 	add	x6, x1, #0x290
  4037c0:	910a4008 	add	x8, x0, #0x290
  4037c4:	f94020c7 	ldr	x7, [x6, #64]
  4037c8:	91010100 	add	x0, x8, #0x40
  4037cc:	a940a401 	ldp	x1, x9, [x0, #8]
  4037d0:	fd4004e5 	ldr	d5, [x7, #8]
  4037d4:	1e6408a6 	fmul	d6, d5, d4
  4037d8:	fd006fe6 	str	d6, [sp, #216]
  4037dc:	eb09003f 	cmp	x1, x9
  4037e0:	540030a0 	b.eq	403df4 <_Z4initv+0x714>  // b.none
  4037e4:	fc008426 	str	d6, [x1], #8
  4037e8:	f9000401 	str	x1, [x0, #8]
  4037ec:	d000008a 	adrp	x10, 415000 <_ZNSo3putEc@GLIBCXX_3.4>
  4037f0:	1e663007 	fmov	d7, #1.700000000000000000e+01
  4037f4:	d000008d 	adrp	x13, 415000 <_ZNSo3putEc@GLIBCXX_3.4>
  4037f8:	910a414b 	add	x11, x10, #0x290
  4037fc:	910a41ae 	add	x14, x13, #0x290
  403800:	f940216c 	ldr	x12, [x11, #64]
  403804:	910101c0 	add	x0, x14, #0x40
  403808:	a940bc01 	ldp	x1, x15, [x0, #8]
  40380c:	fd400990 	ldr	d16, [x12, #16]
  403810:	1e670a11 	fmul	d17, d16, d7
  403814:	fd006ff1 	str	d17, [sp, #216]
  403818:	eb0f003f 	cmp	x1, x15
  40381c:	54002f20 	b.eq	403e00 <_Z4initv+0x720>  // b.none
  403820:	fc008431 	str	d17, [x1], #8
  403824:	f9000401 	str	x1, [x0, #8]
  403828:	d0000090 	adrp	x16, 415000 <_ZNSo3putEc@GLIBCXX_3.4>
  40382c:	1e663012 	fmov	d18, #1.700000000000000000e+01
  403830:	d0000093 	adrp	x19, 415000 <_ZNSo3putEc@GLIBCXX_3.4>
  403834:	910a4211 	add	x17, x16, #0x290
  403838:	910a4262 	add	x2, x19, #0x290
  40383c:	f9402232 	ldr	x18, [x17, #64]
  403840:	91010040 	add	x0, x2, #0x40
  403844:	a940f801 	ldp	x1, x30, [x0, #8]
  403848:	fd400e53 	ldr	d19, [x18, #24]
  40384c:	1e720a74 	fmul	d20, d19, d18
  403850:	fd006ff4 	str	d20, [sp, #216]
  403854:	eb1e003f 	cmp	x1, x30
  403858:	54002da0 	b.eq	403e0c <_Z4initv+0x72c>  // b.none
  40385c:	fc008434 	str	d20, [x1], #8
  403860:	f9000401 	str	x1, [x0, #8]
  403864:	d0000094 	adrp	x20, 415000 <_ZNSo3putEc@GLIBCXX_3.4>
  403868:	1e663015 	fmov	d21, #1.700000000000000000e+01
  40386c:	d0000085 	adrp	x5, 415000 <_ZNSo3putEc@GLIBCXX_3.4>
  403870:	910a4283 	add	x3, x20, #0x290
  403874:	910a40a1 	add	x1, x5, #0x290
  403878:	f9402064 	ldr	x4, [x3, #64]
  40387c:	91010020 	add	x0, x1, #0x40
  403880:	a9409801 	ldp	x1, x6, [x0, #8]
  403884:	fd401096 	ldr	d22, [x4, #32]
  403888:	1e750ad7 	fmul	d23, d22, d21
  40388c:	fd006ff7 	str	d23, [sp, #216]
  403890:	eb06003f 	cmp	x1, x6
  403894:	54002c20 	b.eq	403e18 <_Z4initv+0x738>  // b.none
  403898:	fc008437 	str	d23, [x1], #8
  40389c:	f9000401 	str	x1, [x0, #8]
  4038a0:	d0000087 	adrp	x7, 415000 <_ZNSo3putEc@GLIBCXX_3.4>
  4038a4:	1e663018 	fmov	d24, #1.700000000000000000e+01
  4038a8:	d0000089 	adrp	x9, 415000 <_ZNSo3putEc@GLIBCXX_3.4>
  4038ac:	910a40e0 	add	x0, x7, #0x290
  4038b0:	910a412a 	add	x10, x9, #0x290
  4038b4:	f9402008 	ldr	x8, [x0, #64]
  4038b8:	91010140 	add	x0, x10, #0x40
  4038bc:	a940ac01 	ldp	x1, x11, [x0, #8]
  4038c0:	fd401519 	ldr	d25, [x8, #40]
  4038c4:	1e780b3a 	fmul	d26, d25, d24
  4038c8:	fd006ffa 	str	d26, [sp, #216]
  4038cc:	eb0b003f 	cmp	x1, x11
  4038d0:	54002aa0 	b.eq	403e24 <_Z4initv+0x744>  // b.none
  4038d4:	fc00843a 	str	d26, [x1], #8
  4038d8:	f9000401 	str	x1, [x0, #8]
  4038dc:	d000008c 	adrp	x12, 415000 <_ZNSo3putEc@GLIBCXX_3.4>
  4038e0:	1e66301b 	fmov	d27, #1.700000000000000000e+01
  4038e4:	d000008f 	adrp	x15, 415000 <_ZNSo3putEc@GLIBCXX_3.4>
  4038e8:	910a418d 	add	x13, x12, #0x290
  4038ec:	910a41f0 	add	x16, x15, #0x290
  4038f0:	f94021ae 	ldr	x14, [x13, #64]
  4038f4:	91010200 	add	x0, x16, #0x40
  4038f8:	a940c401 	ldp	x1, x17, [x0, #8]
  4038fc:	fd4019dc 	ldr	d28, [x14, #48]
  403900:	1e7b0b9d 	fmul	d29, d28, d27
  403904:	fd006ffd 	str	d29, [sp, #216]
  403908:	eb11003f 	cmp	x1, x17
  40390c:	54002920 	b.eq	403e30 <_Z4initv+0x750>  // b.none
  403910:	fc00843d 	str	d29, [x1], #8
  403914:	f9000401 	str	x1, [x0, #8]
  403918:	d0000092 	adrp	x18, 415000 <_ZNSo3putEc@GLIBCXX_3.4>
  40391c:	1e66301e 	fmov	d30, #1.700000000000000000e+01
  403920:	d0000082 	adrp	x2, 415000 <_ZNSo3putEc@GLIBCXX_3.4>
  403924:	910a4253 	add	x19, x18, #0x290
  403928:	910a4054 	add	x20, x2, #0x290
  40392c:	f940227e 	ldr	x30, [x19, #64]
  403930:	91010280 	add	x0, x20, #0x40
  403934:	a9408c01 	ldp	x1, x3, [x0, #8]
  403938:	fd401fdf 	ldr	d31, [x30, #56]
  40393c:	1e7e0be0 	fmul	d0, d31, d30
  403940:	fd006fe0 	str	d0, [sp, #216]
  403944:	eb03003f 	cmp	x1, x3
  403948:	540027a0 	b.eq	403e3c <_Z4initv+0x75c>  // b.none
  40394c:	fc008420 	str	d0, [x1], #8
  403950:	f9000401 	str	x1, [x0, #8]
  403954:	d0000084 	adrp	x4, 415000 <_ZNSo3putEc@GLIBCXX_3.4>
  403958:	910a4085 	add	x5, x4, #0x290
  40395c:	f9403ca1 	ldr	x1, [x5, #120]
  403960:	f90067e1 	str	x1, [sp, #200]
  403964:	b4001381 	cbz	x1, 403bd4 <_Z4initv+0x4f4>
  403968:	d0000086 	adrp	x6, 415000 <_ZNSo3putEc@GLIBCXX_3.4>
  40396c:	d0000089 	adrp	x9, 415000 <_ZNSo3putEc@GLIBCXX_3.4>
  403970:	a9046bf9 	stp	x25, x26, [sp, #64]
  403974:	d000008e 	adrp	x14, 415000 <_ZNSo3putEc@GLIBCXX_3.4>
  403978:	d0000099 	adrp	x25, 415000 <_ZNSo3putEc@GLIBCXX_3.4>
  40397c:	d0000091 	adrp	x17, 415000 <_ZNSo3putEc@GLIBCXX_3.4>
  403980:	910a433a 	add	x26, x25, #0x290
  403984:	910a40c7 	add	x7, x6, #0x290
  403988:	910a412a 	add	x10, x9, #0x290
  40398c:	f9404340 	ldr	x0, [x26, #128]
  403990:	910a41cf 	add	x15, x14, #0x290
  403994:	910a4232 	add	x18, x17, #0x290
  403998:	f9400ce8 	ldr	x8, [x7, #24]
  40399c:	d000008c 	adrp	x12, 415000 <_ZNSo3putEc@GLIBCXX_3.4>
  4039a0:	910a418d 	add	x13, x12, #0x290
  4039a4:	f940114b 	ldr	x11, [x10, #32]
  4039a8:	f9004be0 	str	x0, [sp, #144]
  4039ac:	f94019f0 	ldr	x16, [x15, #48]
  4039b0:	f90057e8 	str	x8, [sp, #168]
  4039b4:	f9401e53 	ldr	x19, [x18, #56]
  4039b8:	f90063eb 	str	x11, [sp, #192]
  4039bc:	f94015b9 	ldr	x25, [x13, #40]
  4039c0:	f9005ff0 	str	x16, [sp, #184]
  4039c4:	f9005bf3 	str	x19, [sp, #176]
  4039c8:	b4002400 	cbz	x0, 403e48 <_Z4initv+0x768>
  4039cc:	b40023f9 	cbz	x25, 403e48 <_Z4initv+0x768>
  4039d0:	a9025bf5 	stp	x21, x22, [sp, #32]
  4039d4:	b0000015 	adrp	x21, 404000 <_ZNSt7__cxx1112basic_stringIcSt11char_traitsIcESaIcEEC1IS3_EEPKcRKS3_>
  4039d8:	b0000016 	adrp	x22, 404000 <_ZNSt7__cxx1112basic_stringIcSt11char_traitsIcESaIcEEC1IS3_EEPKcRKS3_>
  4039dc:	a90363f7 	stp	x23, x24, [sp, #48]
  4039e0:	b0000018 	adrp	x24, 404000 <_ZNSt7__cxx1112basic_stringIcSt11char_traitsIcESaIcEEC1IS3_EEPKcRKS3_>
  4039e4:	d37df337 	lsl	x23, x25, #3
  4039e8:	a90573fb 	stp	x27, x28, [sp, #80]
  4039ec:	b000001b 	adrp	x27, 404000 <_ZNSt7__cxx1112basic_stringIcSt11char_traitsIcESaIcEEC1IS3_EEPKcRKS3_>
  4039f0:	6d0627e8 	stp	d8, d9, [sp, #96]
  4039f4:	fd41f709 	ldr	d9, [x24, #1000]
  4039f8:	6d072fea 	stp	d10, d11, [sp, #112]
  4039fc:	fd41f2cb 	ldr	d11, [x22, #992]
  403a00:	6d0837ec 	stp	d12, d13, [sp, #128]
  403a04:	fd41fb6a 	ldr	d10, [x27, #1008]
  403a08:	a909ffff 	stp	xzr, xzr, [sp, #152]
  403a0c:	fd41eead 	ldr	d13, [x21, #984]
  403a10:	d2800018 	mov	x24, #0x0                   	// #0
  403a14:	fd404fe8 	ldr	d8, [sp, #152]
  403a18:	f94053fc 	ldr	x28, [sp, #160]
  403a1c:	f94057e2 	ldr	x2, [sp, #168]
  403a20:	7e61d90c 	ucvtf	d12, d8
  403a24:	f9405bf4 	ldr	x20, [sp, #176]
  403a28:	d37df39e 	lsl	x30, x28, #3
  403a2c:	f9405fe3 	ldr	x3, [sp, #184]
  403a30:	8b1e005b 	add	x27, x2, x30
  403a34:	8b1e029a 	add	x26, x20, x30
  403a38:	8b1e0074 	add	x20, x3, x30
  403a3c:	d503201f 	nop
  403a40:	9e630301 	ucvtf	d1, x24
  403a44:	d2800013 	mov	x19, #0x0                   	// #0
  403a48:	1e6d2820 	fadd	d0, d1, d13
  403a4c:	97fff649 	bl	401370 <cos@plt>
  403a50:	1e604008 	fmov	d8, d0
  403a54:	aa1703e2 	mov	x2, x23
  403a58:	52800001 	mov	w1, #0x0                   	// #0
  403a5c:	aa1b03e0 	mov	x0, x27
  403a60:	97fff668 	bl	401400 <memset@plt>
  403a64:	aa1703e2 	mov	x2, x23
  403a68:	52800001 	mov	w1, #0x0                   	// #0
  403a6c:	aa1a03e0 	mov	x0, x26
  403a70:	97fff664 	bl	401400 <memset@plt>
  403a74:	d1000724 	sub	x4, x25, #0x1
  403a78:	1e6c0908 	fmul	d8, d8, d12
  403a7c:	1e604160 	fmov	d0, d11
  403a80:	f2400495 	ands	x21, x4, #0x3
  403a84:	54000700 	b.eq	403b64 <_Z4initv+0x484>  // b.none
  403a88:	1f4b2500 	fmadd	d0, d8, d11, d9
  403a8c:	d2800033 	mov	x19, #0x1                   	// #1
  403a90:	97fff6a0 	bl	401510 <sin@plt>
  403a94:	1e604002 	fmov	d2, d0
  403a98:	1e6e1003 	fmov	d3, #1.000000000000000000e+00
  403a9c:	1e6a2860 	fadd	d0, d3, d10
  403aa0:	fd000282 	str	d2, [x20]
  403aa4:	97fff633 	bl	401370 <cos@plt>
  403aa8:	eb1302bf 	cmp	x21, x19
  403aac:	540005c0 	b.eq	403b64 <_Z4initv+0x484>  // b.none
  403ab0:	f1000abf 	cmp	x21, #0x2
  403ab4:	54000120 	b.eq	403ad8 <_Z4initv+0x3f8>  // b.none
  403ab8:	1f402500 	fmadd	d0, d8, d0, d9
  403abc:	97fff695 	bl	401510 <sin@plt>
  403ac0:	1e604004 	fmov	d4, d0
  403ac4:	1e601005 	fmov	d5, #2.000000000000000000e+00
  403ac8:	1e6a28a0 	fadd	d0, d5, d10
  403acc:	fc337a84 	str	d4, [x20, x19, lsl #3]
  403ad0:	d2800053 	mov	x19, #0x2                   	// #2
  403ad4:	97fff627 	bl	401370 <cos@plt>
  403ad8:	1f402500 	fmadd	d0, d8, d0, d9
  403adc:	97fff68d 	bl	401510 <sin@plt>
  403ae0:	fc337a80 	str	d0, [x20, x19, lsl #3]
  403ae4:	91000673 	add	x19, x19, #0x1
  403ae8:	9e630266 	ucvtf	d6, x19
  403aec:	1e6a28c0 	fadd	d0, d6, d10
  403af0:	97fff620 	bl	401370 <cos@plt>
  403af4:	1400001c 	b	403b64 <_Z4initv+0x484>
  403af8:	9e630391 	ucvtf	d17, x28
  403afc:	91000a76 	add	x22, x19, #0x2
  403b00:	91000e75 	add	x21, x19, #0x3
  403b04:	91001273 	add	x19, x19, #0x4
  403b08:	1e6a2a20 	fadd	d0, d17, d10
  403b0c:	97fff619 	bl	401370 <cos@plt>
  403b10:	1f402500 	fmadd	d0, d8, d0, d9
  403b14:	97fff67f 	bl	401510 <sin@plt>
  403b18:	9e6302d3 	ucvtf	d19, x22
  403b1c:	1e604012 	fmov	d18, d0
  403b20:	fc3c7a92 	str	d18, [x20, x28, lsl #3]
  403b24:	1e6a2a60 	fadd	d0, d19, d10
  403b28:	97fff612 	bl	401370 <cos@plt>
  403b2c:	1f402500 	fmadd	d0, d8, d0, d9
  403b30:	97fff678 	bl	401510 <sin@plt>
  403b34:	9e6302b5 	ucvtf	d21, x21
  403b38:	1e604014 	fmov	d20, d0
  403b3c:	fc367a94 	str	d20, [x20, x22, lsl #3]
  403b40:	1e6a2aa0 	fadd	d0, d21, d10
  403b44:	97fff60b 	bl	401370 <cos@plt>
  403b48:	1f402500 	fmadd	d0, d8, d0, d9
  403b4c:	97fff671 	bl	401510 <sin@plt>
  403b50:	9e630277 	ucvtf	d23, x19
  403b54:	1e604016 	fmov	d22, d0
  403b58:	fc357a96 	str	d22, [x20, x21, lsl #3]
  403b5c:	1e6a2ae0 	fadd	d0, d23, d10
  403b60:	97fff604 	bl	401370 <cos@plt>
  403b64:	1f402500 	fmadd	d0, d8, d0, d9
  403b68:	9100067c 	add	x28, x19, #0x1
  403b6c:	97fff669 	bl	401510 <sin@plt>
  403b70:	fc337a80 	str	d0, [x20, x19, lsl #3]
  403b74:	eb19039f 	cmp	x28, x25
  403b78:	54fffc01 	b.ne	403af8 <_Z4initv+0x418>  // b.any
  403b7c:	f9404be5 	ldr	x5, [sp, #144]
  403b80:	91000718 	add	x24, x24, #0x1
  403b84:	8b17037b 	add	x27, x27, x23
  403b88:	8b17035a 	add	x26, x26, x23
  403b8c:	8b170294 	add	x20, x20, x23
  403b90:	eb05031f 	cmp	x24, x5
  403b94:	54fff561 	b.ne	403a40 <_Z4initv+0x360>  // b.any
  403b98:	a94987e6 	ldp	x6, x1, [sp, #152]
  403b9c:	f94063e7 	ldr	x7, [sp, #192]
  403ba0:	910004c0 	add	x0, x6, #0x1
  403ba4:	f94067e9 	ldr	x9, [sp, #200]
  403ba8:	8b070028 	add	x8, x1, x7
  403bac:	a909a3e0 	stp	x0, x8, [sp, #152]
  403bb0:	eb09001f 	cmp	x0, x9
  403bb4:	54fff2e1 	b.ne	403a10 <_Z4initv+0x330>  // b.any
  403bb8:	6d4627e8 	ldp	d8, d9, [sp, #96]
  403bbc:	a9425bf5 	ldp	x21, x22, [sp, #32]
  403bc0:	a94363f7 	ldp	x23, x24, [sp, #48]
  403bc4:	a9446bf9 	ldp	x25, x26, [sp, #64]
  403bc8:	a94573fb 	ldp	x27, x28, [sp, #80]
  403bcc:	6d472fea 	ldp	d10, d11, [sp, #112]
  403bd0:	6d4837ec 	ldp	d12, d13, [sp, #128]
  403bd4:	d000008a 	adrp	x10, 415000 <_ZNSo3putEc@GLIBCXX_3.4>
  403bd8:	f9414953 	ldr	x19, [x10, #656]
  403bdc:	b4000f33 	cbz	x19, 403dc0 <_Z4initv+0x6e0>
  403be0:	910a414b 	add	x11, x10, #0x290
  403be4:	d0000091 	adrp	x17, 415000 <_ZNSo3putEc@GLIBCXX_3.4>
  403be8:	d000008d 	adrp	x13, 415000 <_ZNSo3putEc@GLIBCXX_3.4>
  403bec:	d000008f 	adrp	x15, 415000 <_ZNSo3putEc@GLIBCXX_3.4>
  403bf0:	f940056c 	ldr	x12, [x11, #8]
  403bf4:	d000009e 	adrp	x30, 415000 <_ZNSo3putEc@GLIBCXX_3.4>
  403bf8:	910a41ae 	add	x14, x13, #0x290
  403bfc:	910a41f0 	add	x16, x15, #0x290
  403c00:	910a4232 	add	x18, x17, #0x290
  403c04:	f94009c3 	ldr	x3, [x14, #16]
  403c08:	910a43c2 	add	x2, x30, #0x290
  403c0c:	f9400e05 	ldr	x5, [x16, #24]
  403c10:	f9401251 	ldr	x17, [x18, #32]
  403c14:	f940144a 	ldr	x10, [x2, #40]
  403c18:	b4000d4c 	cbz	x12, 403dc0 <_Z4initv+0x6e0>
  403c1c:	b4000d23 	cbz	x3, 403dc0 <_Z4initv+0x6e0>
  403c20:	8b0a0234 	add	x20, x17, x10
  403c24:	1e6e1010 	fmov	d16, #1.000000000000000000e+00
  403c28:	6f03f607 	fmov	v7.2d, #1.000000000000000000e+00
  403c2c:	91000684 	add	x4, x20, #0x1
  403c30:	d37df232 	lsl	x18, x17, #3
  403c34:	d37df14b 	lsl	x11, x10, #3
  403c38:	d341fc66 	lsr	x6, x3, #1
  403c3c:	8b0418ae 	add	x14, x5, x4, lsl #6
  403c40:	aa1203f0 	mov	x16, x18
  403c44:	91002174 	add	x20, x11, #0x8
  403c48:	d37cecc8 	lsl	x8, x6, #4
  403c4c:	d100046d 	sub	x13, x3, #0x1
  403c50:	927ff869 	and	x9, x3, #0xfffffffffffffffe
  403c54:	d280000f 	mov	x15, #0x0                   	// #0
  403c58:	d503201f 	nop
  403c5c:	d503201f 	nop
  403c60:	8b10029e 	add	x30, x20, x16
  403c64:	aa0e03e2 	mov	x2, x14
  403c68:	d2800004 	mov	x4, #0x0                   	// #0
  403c6c:	f10019bf 	cmp	x13, #0x6
  403c70:	54000ae9 	b.ls	403dcc <_Z4initv+0x6ec>  // b.plast
  403c74:	d1004101 	sub	x1, x8, #0x10
  403c78:	8b020107 	add	x7, x8, x2
  403c7c:	d344fc26 	lsr	x6, x1, #4
  403c80:	aa0203e0 	mov	x0, x2
  403c84:	910004c1 	add	x1, x6, #0x1
  403c88:	f2400826 	ands	x6, x1, #0x7
  403c8c:	540002c0 	b.eq	403ce4 <_Z4initv+0x604>  // b.none
  403c90:	f10004df 	cmp	x6, #0x1
  403c94:	54000220 	b.eq	403cd8 <_Z4initv+0x5f8>  // b.none
  403c98:	f10008df 	cmp	x6, #0x2
  403c9c:	540001c0 	b.eq	403cd4 <_Z4initv+0x5f4>  // b.none
  403ca0:	f1000cdf 	cmp	x6, #0x3
  403ca4:	54000160 	b.eq	403cd0 <_Z4initv+0x5f0>  // b.none
  403ca8:	f10010df 	cmp	x6, #0x4
  403cac:	54000100 	b.eq	403ccc <_Z4initv+0x5ec>  // b.none
  403cb0:	f10014df 	cmp	x6, #0x5
  403cb4:	540000a0 	b.eq	403cc8 <_Z4initv+0x5e8>  // b.none
  403cb8:	f10018df 	cmp	x6, #0x6
  403cbc:	54000040 	b.eq	403cc4 <_Z4initv+0x5e4>  // b.none
  403cc0:	3c810407 	str	q7, [x0], #16
  403cc4:	3c810407 	str	q7, [x0], #16
  403cc8:	3c810407 	str	q7, [x0], #16
  403ccc:	3c810407 	str	q7, [x0], #16
  403cd0:	3c810407 	str	q7, [x0], #16
  403cd4:	3c810407 	str	q7, [x0], #16
  403cd8:	3c810407 	str	q7, [x0], #16
  403cdc:	eb07001f 	cmp	x0, x7
  403ce0:	54000160 	b.eq	403d0c <_Z4initv+0x62c>  // b.none
  403ce4:	aa0003e1 	mov	x1, x0
  403ce8:	3c810427 	str	q7, [x1], #16
  403cec:	3d800407 	str	q7, [x0, #16]
  403cf0:	3d800427 	str	q7, [x1, #16]
  403cf4:	ad019c07 	stp	q7, q7, [x0, #48]
  403cf8:	ad029c07 	stp	q7, q7, [x0, #80]
  403cfc:	91020000 	add	x0, x0, #0x80
  403d00:	3c9f0007 	stur	q7, [x0, #-16]
  403d04:	eb07001f 	cmp	x0, x7
  403d08:	54fffee1 	b.ne	403ce4 <_Z4initv+0x604>  // b.any
  403d0c:	aa0903e0 	mov	x0, x9
  403d10:	eb09007f 	cmp	x3, x9
  403d14:	54000420 	b.eq	403d98 <_Z4initv+0x6b8>  // b.none
  403d18:	8b1e0007 	add	x7, x0, x30
  403d1c:	91000406 	add	x6, x0, #0x1
  403d20:	fc2778b0 	str	d16, [x5, x7, lsl #3]
  403d24:	eb06007f 	cmp	x3, x6
  403d28:	54000389 	b.ls	403d98 <_Z4initv+0x6b8>  // b.plast
  403d2c:	8b1e00c1 	add	x1, x6, x30
  403d30:	91000807 	add	x7, x0, #0x2
  403d34:	fc2178b0 	str	d16, [x5, x1, lsl #3]
  403d38:	eb07007f 	cmp	x3, x7
  403d3c:	540002e9 	b.ls	403d98 <_Z4initv+0x6b8>  // b.plast
  403d40:	8b1e00e6 	add	x6, x7, x30
  403d44:	91000c01 	add	x1, x0, #0x3
  403d48:	fc2678b0 	str	d16, [x5, x6, lsl #3]
  403d4c:	eb03003f 	cmp	x1, x3
  403d50:	54000242 	b.cs	403d98 <_Z4initv+0x6b8>  // b.hs, b.nlast
  403d54:	8b1e0026 	add	x6, x1, x30
  403d58:	91001007 	add	x7, x0, #0x4
  403d5c:	fc2678b0 	str	d16, [x5, x6, lsl #3]
  403d60:	eb0300ff 	cmp	x7, x3
  403d64:	540001a2 	b.cs	403d98 <_Z4initv+0x6b8>  // b.hs, b.nlast
  403d68:	8b1e00e6 	add	x6, x7, x30
  403d6c:	91001401 	add	x1, x0, #0x5
  403d70:	fc2678b0 	str	d16, [x5, x6, lsl #3]
  403d74:	eb03003f 	cmp	x1, x3
  403d78:	54000102 	b.cs	403d98 <_Z4initv+0x6b8>  // b.hs, b.nlast
  403d7c:	8b1e0027 	add	x7, x1, x30
  403d80:	91001800 	add	x0, x0, #0x6
  403d84:	fc2778b0 	str	d16, [x5, x7, lsl #3]
  403d88:	eb00007f 	cmp	x3, x0
  403d8c:	54000069 	b.ls	403d98 <_Z4initv+0x6b8>  // b.plast
  403d90:	8b1e0006 	add	x6, x0, x30
  403d94:	fc2678b0 	str	d16, [x5, x6, lsl #3]
  403d98:	91000484 	add	x4, x4, #0x1
  403d9c:	8b0a03de 	add	x30, x30, x10
  403da0:	8b0b0042 	add	x2, x2, x11
  403da4:	eb04019f 	cmp	x12, x4
  403da8:	54fff621 	b.ne	403c6c <_Z4initv+0x58c>  // b.any
  403dac:	910005ef 	add	x15, x15, #0x1
  403db0:	8b1201ce 	add	x14, x14, x18
  403db4:	8b110210 	add	x16, x16, x17
  403db8:	eb1301ff 	cmp	x15, x19
  403dbc:	54fff521 	b.ne	403c60 <_Z4initv+0x580>  // b.any
  403dc0:	a94153f3 	ldp	x19, x20, [sp, #16]
  403dc4:	a8ce7bfd 	ldp	x29, x30, [sp], #224
  403dc8:	d65f03c0 	ret
  403dcc:	d2800000 	mov	x0, #0x0                   	// #0
  403dd0:	17ffffd2 	b	403d18 <_Z4initv+0x638>
  403dd4:	910363e2 	add	x2, sp, #0xd8
  403dd8:	aa1303e0 	mov	x0, x19
  403ddc:	940000c1 	bl	4040e0 <_ZNSt6vectorIdSaIdEE17_M_realloc_insertIJdEEEvN9__gnu_cxx17__normal_iteratorIPdS1_EEDpOT_>
  403de0:	a9408662 	ldp	x2, x1, [x19, #8]
  403de4:	17fffe65 	b	403778 <_Z4initv+0x98>
  403de8:	910363e2 	add	x2, sp, #0xd8
  403dec:	940000bd 	bl	4040e0 <_ZNSt6vectorIdSaIdEE17_M_realloc_insertIJdEEEvN9__gnu_cxx17__normal_iteratorIPdS1_EEDpOT_>
  403df0:	17fffe70 	b	4037b0 <_Z4initv+0xd0>
  403df4:	910363e2 	add	x2, sp, #0xd8
  403df8:	940000ba 	bl	4040e0 <_ZNSt6vectorIdSaIdEE17_M_realloc_insertIJdEEEvN9__gnu_cxx17__normal_iteratorIPdS1_EEDpOT_>
  403dfc:	17fffe7c 	b	4037ec <_Z4initv+0x10c>
  403e00:	910363e2 	add	x2, sp, #0xd8
  403e04:	940000b7 	bl	4040e0 <_ZNSt6vectorIdSaIdEE17_M_realloc_insertIJdEEEvN9__gnu_cxx17__normal_iteratorIPdS1_EEDpOT_>
  403e08:	17fffe88 	b	403828 <_Z4initv+0x148>
  403e0c:	910363e2 	add	x2, sp, #0xd8
  403e10:	940000b4 	bl	4040e0 <_ZNSt6vectorIdSaIdEE17_M_realloc_insertIJdEEEvN9__gnu_cxx17__normal_iteratorIPdS1_EEDpOT_>
  403e14:	17fffe94 	b	403864 <_Z4initv+0x184>
  403e18:	910363e2 	add	x2, sp, #0xd8
  403e1c:	940000b1 	bl	4040e0 <_ZNSt6vectorIdSaIdEE17_M_realloc_insertIJdEEEvN9__gnu_cxx17__normal_iteratorIPdS1_EEDpOT_>
  403e20:	17fffea0 	b	4038a0 <_Z4initv+0x1c0>
  403e24:	910363e2 	add	x2, sp, #0xd8
  403e28:	940000ae 	bl	4040e0 <_ZNSt6vectorIdSaIdEE17_M_realloc_insertIJdEEEvN9__gnu_cxx17__normal_iteratorIPdS1_EEDpOT_>
  403e2c:	17fffeac 	b	4038dc <_Z4initv+0x1fc>
  403e30:	910363e2 	add	x2, sp, #0xd8
  403e34:	940000ab 	bl	4040e0 <_ZNSt6vectorIdSaIdEE17_M_realloc_insertIJdEEEvN9__gnu_cxx17__normal_iteratorIPdS1_EEDpOT_>
  403e38:	17fffeb8 	b	403918 <_Z4initv+0x238>
  403e3c:	910363e2 	add	x2, sp, #0xd8
  403e40:	940000a8 	bl	4040e0 <_ZNSt6vectorIdSaIdEE17_M_realloc_insertIJdEEEvN9__gnu_cxx17__normal_iteratorIPdS1_EEDpOT_>
  403e44:	17fffec4 	b	403954 <_Z4initv+0x274>
  403e48:	a9446bf9 	ldp	x25, x26, [sp, #64]
  403e4c:	17ffff62 	b	403bd4 <_Z4initv+0x4f4>
  403e50:	b0000005 	adrp	x5, 404000 <_ZNSt7__cxx1112basic_stringIcSt11char_traitsIcESaIcEEC1IS3_EEPKcRKS3_>
  403e54:	b0000006 	adrp	x6, 404000 <_ZNSt7__cxx1112basic_stringIcSt11char_traitsIcESaIcEEC1IS3_EEPKcRKS3_>
  403e58:	a9025bf5 	stp	x21, x22, [sp, #32]
  403e5c:	b0000000 	adrp	x0, 404000 <_ZNSt7__cxx1112basic_stringIcSt11char_traitsIcESaIcEEC1IS3_EEPKcRKS3_>
  403e60:	910c80a3 	add	x3, x5, #0x320
  403e64:	910cc0c1 	add	x1, x6, #0x330
  403e68:	910d0000 	add	x0, x0, #0x340
  403e6c:	52800702 	mov	w2, #0x38                  	// #56
  403e70:	a90363f7 	stp	x23, x24, [sp, #48]
  403e74:	a9046bf9 	stp	x25, x26, [sp, #64]
  403e78:	a90573fb 	stp	x27, x28, [sp, #80]
  403e7c:	6d0627e8 	stp	d8, d9, [sp, #96]
  403e80:	6d072fea 	stp	d10, d11, [sp, #112]
  403e84:	6d0837ec 	stp	d12, d13, [sp, #128]
  403e88:	97fff552 	bl	4013d0 <__assert_fail@plt>
  403e8c:	b000000e 	adrp	x14, 404000 <_ZNSt7__cxx1112basic_stringIcSt11char_traitsIcESaIcEEC1IS3_EEPKcRKS3_>
  403e90:	b000000f 	adrp	x15, 404000 <_ZNSt7__cxx1112basic_stringIcSt11char_traitsIcESaIcEEC1IS3_EEPKcRKS3_>
  403e94:	a9025bf5 	stp	x21, x22, [sp, #32]
  403e98:	b0000010 	adrp	x16, 404000 <_ZNSt7__cxx1112basic_stringIcSt11char_traitsIcESaIcEEC1IS3_EEPKcRKS3_>
  403e9c:	910c81c3 	add	x3, x14, #0x320
  403ea0:	910cc1e1 	add	x1, x15, #0x330
  403ea4:	910d8200 	add	x0, x16, #0x360
  403ea8:	52800782 	mov	w2, #0x3c                  	// #60
  403eac:	a90363f7 	stp	x23, x24, [sp, #48]
  403eb0:	a9046bf9 	stp	x25, x26, [sp, #64]
  403eb4:	a90573fb 	stp	x27, x28, [sp, #80]
  403eb8:	6d0627e8 	stp	d8, d9, [sp, #96]
  403ebc:	6d072fea 	stp	d10, d11, [sp, #112]
  403ec0:	6d0837ec 	stp	d12, d13, [sp, #128]
  403ec4:	97fff543 	bl	4013d0 <__assert_fail@plt>
  403ec8:	b0000009 	adrp	x9, 404000 <_ZNSt7__cxx1112basic_stringIcSt11char_traitsIcESaIcEEC1IS3_EEPKcRKS3_>
  403ecc:	b000000a 	adrp	x10, 404000 <_ZNSt7__cxx1112basic_stringIcSt11char_traitsIcESaIcEEC1IS3_EEPKcRKS3_>
  403ed0:	a9025bf5 	stp	x21, x22, [sp, #32]
  403ed4:	b000000b 	adrp	x11, 404000 <_ZNSt7__cxx1112basic_stringIcSt11char_traitsIcESaIcEEC1IS3_EEPKcRKS3_>
  403ed8:	910c8123 	add	x3, x9, #0x320
  403edc:	910cc141 	add	x1, x10, #0x330
  403ee0:	910d4160 	add	x0, x11, #0x350
  403ee4:	52800742 	mov	w2, #0x3a                  	// #58
  403ee8:	a90363f7 	stp	x23, x24, [sp, #48]
  403eec:	a9046bf9 	stp	x25, x26, [sp, #64]
  403ef0:	a90573fb 	stp	x27, x28, [sp, #80]
  403ef4:	6d0627e8 	stp	d8, d9, [sp, #96]
  403ef8:	6d072fea 	stp	d10, d11, [sp, #112]
  403efc:	6d0837ec 	stp	d12, d13, [sp, #128]
  403f00:	97fff534 	bl	4013d0 <__assert_fail@plt>
  403f04:	d503201f 	nop
  403f08:	d503201f 	nop
  403f0c:	d503201f 	nop
  403f10:	d503201f 	nop
  403f14:	d503201f 	nop
  403f18:	d503201f 	nop
  403f1c:	d503201f 	nop

0000000000403f20 <_ZNSt6vectorIdSaIdEED1Ev>:
  403f20:	aa0003e2 	mov	x2, x0
  403f24:	f9400000 	ldr	x0, [x0]
  403f28:	b4000080 	cbz	x0, 403f38 <_ZNSt6vectorIdSaIdEED1Ev+0x18>
  403f2c:	f9400841 	ldr	x1, [x2, #16]
  403f30:	cb000021 	sub	x1, x1, x0
  403f34:	17fff553 	b	401480 <_ZdlPvm@plt>
  403f38:	d65f03c0 	ret
  403f3c:	d503201f 	nop

0000000000403f40 <_ZN9__gnu_cxx6__stoaIlicJiEEET0_PFT_PKT1_PPS3_DpT2_EPKcS5_PmS9_>:
  403f40:	a9bb7bfd 	stp	x29, x30, [sp, #-80]!
  403f44:	910003fd 	mov	x29, sp
  403f48:	a90153f3 	stp	x19, x20, [sp, #16]
  403f4c:	aa0203f4 	mov	x20, x2
  403f50:	a9025bf5 	stp	x21, x22, [sp, #32]
  403f54:	aa0003f6 	mov	x22, x0
  403f58:	aa0303f5 	mov	x21, x3
  403f5c:	a90363f7 	stp	x23, x24, [sp, #48]
  403f60:	2a0403f7 	mov	w23, w4
  403f64:	aa0103f8 	mov	x24, x1
  403f68:	97fff566 	bl	401500 <__errno_location@plt>
  403f6c:	aa0003f3 	mov	x19, x0
  403f70:	2a1703e2 	mov	w2, w23
  403f74:	aa1403e0 	mov	x0, x20
  403f78:	b9400277 	ldr	w23, [x19]
  403f7c:	910123e1 	add	x1, sp, #0x48
  403f80:	b900027f 	str	wzr, [x19]
  403f84:	d63f02c0 	blr	x22
  403f88:	f94027e2 	ldr	x2, [sp, #72]
  403f8c:	eb14005f 	cmp	x2, x20
  403f90:	540002a0 	b.eq	403fe4 <_ZN9__gnu_cxx6__stoaIlicJiEEET0_PFT_PKT1_PPS3_DpT2_EPKcS5_PmS9_+0xa4>  // b.none
  403f94:	b9400263 	ldr	w3, [x19]
  403f98:	7100887f 	cmp	w3, #0x22
  403f9c:	54000200 	b.eq	403fdc <_ZN9__gnu_cxx6__stoaIlicJiEEET0_PFT_PKT1_PPS3_DpT2_EPKcS5_PmS9_+0x9c>  // b.none
  403fa0:	d2b00001 	mov	x1, #0x80000000            	// #2147483648
  403fa4:	b2407fe4 	mov	x4, #0xffffffff            	// #4294967295
  403fa8:	8b010005 	add	x5, x0, x1
  403fac:	eb0400bf 	cmp	x5, x4
  403fb0:	54000168 	b.hi	403fdc <_ZN9__gnu_cxx6__stoaIlicJiEEET0_PFT_PKT1_PPS3_DpT2_EPKcS5_PmS9_+0x9c>  // b.pmore
  403fb4:	b4000075 	cbz	x21, 403fc0 <_ZN9__gnu_cxx6__stoaIlicJiEEET0_PFT_PKT1_PPS3_DpT2_EPKcS5_PmS9_+0x80>
  403fb8:	cb140046 	sub	x6, x2, x20
  403fbc:	f90002a6 	str	x6, [x21]
  403fc0:	35000043 	cbnz	w3, 403fc8 <_ZN9__gnu_cxx6__stoaIlicJiEEET0_PFT_PKT1_PPS3_DpT2_EPKcS5_PmS9_+0x88>
  403fc4:	b9000277 	str	w23, [x19]
  403fc8:	a94153f3 	ldp	x19, x20, [sp, #16]
  403fcc:	a9425bf5 	ldp	x21, x22, [sp, #32]
  403fd0:	a94363f7 	ldp	x23, x24, [sp, #48]
  403fd4:	a8c57bfd 	ldp	x29, x30, [sp], #80
  403fd8:	d65f03c0 	ret
  403fdc:	aa1803e0 	mov	x0, x24
  403fe0:	97fff550 	bl	401520 <_ZSt20__throw_out_of_rangePKc@plt>
  403fe4:	aa1803e0 	mov	x0, x24
  403fe8:	97fff50a 	bl	401410 <_ZSt24__throw_invalid_argumentPKc@plt>
  403fec:	b9400267 	ldr	w7, [x19]
  403ff0:	35000047 	cbnz	w7, 403ff8 <_ZN9__gnu_cxx6__stoaIlicJiEEET0_PFT_PKT1_PPS3_DpT2_EPKcS5_PmS9_+0xb8>
  403ff4:	b9000277 	str	w23, [x19]
  403ff8:	97fff566 	bl	401590 <_Unwind_Resume@plt>
  403ffc:	d503201f 	nop

0000000000404000 <_ZNSt7__cxx1112basic_stringIcSt11char_traitsIcESaIcEEC1IS3_EEPKcRKS3_>:
  404000:	a9bc7bfd 	stp	x29, x30, [sp, #-64]!
  404004:	910003fd 	mov	x29, sp
  404008:	a9025bf5 	stp	x21, x22, [sp, #32]
  40400c:	91004016 	add	x22, x0, #0x10
  404010:	a90153f3 	stp	x19, x20, [sp, #16]
  404014:	f9000016 	str	x22, [x0]
  404018:	b40005c1 	cbz	x1, 4040d0 <_ZNSt7__cxx1112basic_stringIcSt11char_traitsIcESaIcEEC1IS3_EEPKcRKS3_+0xd0>
  40401c:	aa0003f4 	mov	x20, x0
  404020:	aa0103e0 	mov	x0, x1
  404024:	aa0103f5 	mov	x21, x1
  404028:	97fff4d6 	bl	401380 <strlen@plt>
  40402c:	f9001fe0 	str	x0, [sp, #56]
  404030:	aa0003f3 	mov	x19, x0
  404034:	f1003c1f 	cmp	x0, #0xf
  404038:	54000248 	b.hi	404080 <_ZNSt7__cxx1112basic_stringIcSt11char_traitsIcESaIcEEC1IS3_EEPKcRKS3_+0x80>  // b.pmore
  40403c:	f100041f 	cmp	x0, #0x1
  404040:	54000121 	b.ne	404064 <_ZNSt7__cxx1112basic_stringIcSt11char_traitsIcESaIcEEC1IS3_EEPKcRKS3_+0x64>  // b.any
  404044:	394002a1 	ldrb	w1, [x21]
  404048:	f9000693 	str	x19, [x20, #8]
  40404c:	39004281 	strb	w1, [x20, #16]
  404050:	38336adf 	strb	wzr, [x22, x19]
  404054:	a94153f3 	ldp	x19, x20, [sp, #16]
  404058:	a9425bf5 	ldp	x21, x22, [sp, #32]
  40405c:	a8c47bfd 	ldp	x29, x30, [sp], #64
  404060:	d65f03c0 	ret
  404064:	b50001e0 	cbnz	x0, 4040a0 <_ZNSt7__cxx1112basic_stringIcSt11char_traitsIcESaIcEEC1IS3_EEPKcRKS3_+0xa0>
  404068:	f9000693 	str	x19, [x20, #8]
  40406c:	38336adf 	strb	wzr, [x22, x19]
  404070:	a94153f3 	ldp	x19, x20, [sp, #16]
  404074:	a9425bf5 	ldp	x21, x22, [sp, #32]
  404078:	a8c47bfd 	ldp	x29, x30, [sp], #64
  40407c:	d65f03c0 	ret
  404080:	d2800002 	mov	x2, #0x0                   	// #0
  404084:	9100e3e1 	add	x1, sp, #0x38
  404088:	aa1403e0 	mov	x0, x20
  40408c:	97fff545 	bl	4015a0 <_ZNSt7__cxx1112basic_stringIcSt11char_traitsIcESaIcEE9_M_createERmm@plt>
  404090:	f9401fe2 	ldr	x2, [sp, #56]
  404094:	aa0003f6 	mov	x22, x0
  404098:	f9000280 	str	x0, [x20]
  40409c:	f9000a82 	str	x2, [x20, #16]
  4040a0:	aa1303e2 	mov	x2, x19
  4040a4:	aa1503e1 	mov	x1, x21
  4040a8:	aa1603e0 	mov	x0, x22
  4040ac:	97fff4ad 	bl	401360 <memcpy@plt>
  4040b0:	f9401ff3 	ldr	x19, [sp, #56]
  4040b4:	f9400296 	ldr	x22, [x20]
  4040b8:	f9000693 	str	x19, [x20, #8]
  4040bc:	38336adf 	strb	wzr, [x22, x19]
  4040c0:	a94153f3 	ldp	x19, x20, [sp, #16]
  4040c4:	a9425bf5 	ldp	x21, x22, [sp, #32]
  4040c8:	a8c47bfd 	ldp	x29, x30, [sp], #64
  4040cc:	d65f03c0 	ret
  4040d0:	90000000 	adrp	x0, 404000 <_ZNSt7__cxx1112basic_stringIcSt11char_traitsIcESaIcEEC1IS3_EEPKcRKS3_>
  4040d4:	910b4000 	add	x0, x0, #0x2d0
  4040d8:	97fff4d6 	bl	401430 <_ZSt19__throw_logic_errorPKc@plt>
  4040dc:	d503201f 	nop

00000000004040e0 <_ZNSt6vectorIdSaIdEE17_M_realloc_insertIJdEEEvN9__gnu_cxx17__normal_iteratorIPdS1_EEDpOT_>:
  4040e0:	a9ba7bfd 	stp	x29, x30, [sp, #-96]!
  4040e4:	910003fd 	mov	x29, sp
  4040e8:	92fe0004 	mov	x4, #0xfffffffffffffff     	// #1152921504606846975
  4040ec:	a9025bf5 	stp	x21, x22, [sp, #32]
  4040f0:	a9046bf9 	stp	x25, x26, [sp, #64]
  4040f4:	a9405419 	ldp	x25, x21, [x0]
  4040f8:	a90153f3 	stp	x19, x20, [sp, #16]
  4040fc:	cb1902a3 	sub	x3, x21, x25
  404100:	9343fc65 	asr	x5, x3, #3
  404104:	a90363f7 	stp	x23, x24, [sp, #48]
  404108:	a90573fb 	stp	x27, x28, [sp, #80]
  40410c:	eb0400bf 	cmp	x5, x4
  404110:	54000760 	b.eq	4041fc <_ZNSt6vectorIdSaIdEE17_M_realloc_insertIJdEEEvN9__gnu_cxx17__normal_iteratorIPdS1_EEDpOT_+0x11c>  // b.none
  404114:	f10000bf 	cmp	x5, #0x0
  404118:	aa0003f4 	mov	x20, x0
  40411c:	9a9f14a0 	csinc	x0, x5, xzr, ne  // ne = any
  404120:	aa0103f8 	mov	x24, x1
  404124:	cb19003a 	sub	x26, x1, x25
  404128:	ab0000a1 	adds	x1, x5, x0
  40412c:	aa0203f6 	mov	x22, x2
  404130:	54000522 	b.cs	4041d4 <_ZNSt6vectorIdSaIdEE17_M_realloc_insertIJdEEEvN9__gnu_cxx17__normal_iteratorIPdS1_EEDpOT_+0xf4>  // b.hs, b.nlast
  404134:	b50005c1 	cbnz	x1, 4041ec <_ZNSt6vectorIdSaIdEE17_M_realloc_insertIJdEEEvN9__gnu_cxx17__normal_iteratorIPdS1_EEDpOT_+0x10c>
  404138:	d2800013 	mov	x19, #0x0                   	// #0
  40413c:	d2800017 	mov	x23, #0x0                   	// #0
  404140:	fd4002c0 	ldr	d0, [x22]
  404144:	91002346 	add	x6, x26, #0x8
  404148:	cb1802b5 	sub	x21, x21, x24
  40414c:	8b0602f6 	add	x22, x23, x6
  404150:	8b1502db 	add	x27, x22, x21
  404154:	f9400a9c 	ldr	x28, [x20, #16]
  404158:	fc3a6ae0 	str	d0, [x23, x26]
  40415c:	f100035f 	cmp	x26, #0x0
  404160:	540001ac 	b.gt	404194 <_ZNSt6vectorIdSaIdEE17_M_realloc_insertIJdEEEvN9__gnu_cxx17__normal_iteratorIPdS1_EEDpOT_+0xb4>
  404164:	f10002bf 	cmp	x21, #0x0
  404168:	540002ac 	b.gt	4041bc <_ZNSt6vectorIdSaIdEE17_M_realloc_insertIJdEEEvN9__gnu_cxx17__normal_iteratorIPdS1_EEDpOT_+0xdc>
  40416c:	b5000219 	cbnz	x25, 4041ac <_ZNSt6vectorIdSaIdEE17_M_realloc_insertIJdEEEvN9__gnu_cxx17__normal_iteratorIPdS1_EEDpOT_+0xcc>
  404170:	a9425bf5 	ldp	x21, x22, [sp, #32]
  404174:	a9446bf9 	ldp	x25, x26, [sp, #64]
  404178:	a9006e97 	stp	x23, x27, [x20]
  40417c:	f9000a93 	str	x19, [x20, #16]
  404180:	a94153f3 	ldp	x19, x20, [sp, #16]
  404184:	a94363f7 	ldp	x23, x24, [sp, #48]
  404188:	a94573fb 	ldp	x27, x28, [sp, #80]
  40418c:	a8c67bfd 	ldp	x29, x30, [sp], #96
  404190:	d65f03c0 	ret
  404194:	aa1a03e2 	mov	x2, x26
  404198:	aa1903e1 	mov	x1, x25
  40419c:	aa1703e0 	mov	x0, x23
  4041a0:	97fff4d0 	bl	4014e0 <memmove@plt>
  4041a4:	f10002bf 	cmp	x21, #0x0
  4041a8:	540000ac 	b.gt	4041bc <_ZNSt6vectorIdSaIdEE17_M_realloc_insertIJdEEEvN9__gnu_cxx17__normal_iteratorIPdS1_EEDpOT_+0xdc>
  4041ac:	cb190381 	sub	x1, x28, x25
  4041b0:	aa1903e0 	mov	x0, x25
  4041b4:	97fff4b3 	bl	401480 <_ZdlPvm@plt>
  4041b8:	17ffffee 	b	404170 <_ZNSt6vectorIdSaIdEE17_M_realloc_insertIJdEEEvN9__gnu_cxx17__normal_iteratorIPdS1_EEDpOT_+0x90>
  4041bc:	aa1503e2 	mov	x2, x21
  4041c0:	aa1803e1 	mov	x1, x24
  4041c4:	aa1603e0 	mov	x0, x22
  4041c8:	97fff466 	bl	401360 <memcpy@plt>
  4041cc:	b4fffd39 	cbz	x25, 404170 <_ZNSt6vectorIdSaIdEE17_M_realloc_insertIJdEEEvN9__gnu_cxx17__normal_iteratorIPdS1_EEDpOT_+0x90>
  4041d0:	17fffff7 	b	4041ac <_ZNSt6vectorIdSaIdEE17_M_realloc_insertIJdEEEvN9__gnu_cxx17__normal_iteratorIPdS1_EEDpOT_+0xcc>
  4041d4:	b27deff3 	mov	x19, #0x7ffffffffffffff8    	// #9223372036854775800
  4041d8:	aa1303e0 	mov	x0, x19
  4041dc:	97fff4a5 	bl	401470 <_Znwm@plt>
  4041e0:	aa0003f7 	mov	x23, x0
  4041e4:	8b130013 	add	x19, x0, x19
  4041e8:	17ffffd6 	b	404140 <_ZNSt6vectorIdSaIdEE17_M_realloc_insertIJdEEEvN9__gnu_cxx17__normal_iteratorIPdS1_EEDpOT_+0x60>
  4041ec:	eb04003f 	cmp	x1, x4
  4041f0:	9a849022 	csel	x2, x1, x4, ls  // ls = plast
  4041f4:	d37df053 	lsl	x19, x2, #3
  4041f8:	17fffff8 	b	4041d8 <_ZNSt6vectorIdSaIdEE17_M_realloc_insertIJdEEEvN9__gnu_cxx17__normal_iteratorIPdS1_EEDpOT_+0xf8>
  4041fc:	90000007 	adrp	x7, 404000 <_ZNSt7__cxx1112basic_stringIcSt11char_traitsIcESaIcEEC1IS3_EEPKcRKS3_>
  404200:	910c00e0 	add	x0, x7, #0x300
  404204:	97fff477 	bl	4013e0 <_ZSt20__throw_length_errorPKc@plt>
  404208:	d503201f 	nop
  40420c:	d503201f 	nop
  404210:	d503201f 	nop
  404214:	d503201f 	nop
  404218:	d503201f 	nop
  40421c:	d503201f 	nop

0000000000404220 <__libc_csu_init>:
  404220:	a9bc7bfd 	stp	x29, x30, [sp, #-64]!
  404224:	910003fd 	mov	x29, sp
  404228:	a901d7f4 	stp	x20, x21, [sp, #24]
  40422c:	90000094 	adrp	x20, 414000 <__FRAME_END__+0xf724>
  404230:	90000095 	adrp	x21, 414000 <__FRAME_END__+0xf724>
  404234:	91368294 	add	x20, x20, #0xda0
  404238:	913622b5 	add	x21, x21, #0xd88
  40423c:	a902dff6 	stp	x22, x23, [sp, #40]
  404240:	cb150294 	sub	x20, x20, x21
  404244:	f9001ff8 	str	x24, [sp, #56]
  404248:	9343fe94 	asr	x20, x20, #3
  40424c:	2a0003f6 	mov	w22, w0
  404250:	aa0103f7 	mov	x23, x1
  404254:	aa0203f8 	mov	x24, x2
  404258:	97fff42e 	bl	401310 <_init>
  40425c:	b4000194 	cbz	x20, 40428c <__libc_csu_init+0x6c>
  404260:	f9000bb3 	str	x19, [x29, #16]
  404264:	d2800013 	mov	x19, #0x0                   	// #0
  404268:	f8737aa3 	ldr	x3, [x21, x19, lsl #3]
  40426c:	aa1803e2 	mov	x2, x24
  404270:	aa1703e1 	mov	x1, x23
  404274:	2a1603e0 	mov	w0, w22
  404278:	91000673 	add	x19, x19, #0x1
  40427c:	d63f0060 	blr	x3
  404280:	eb13029f 	cmp	x20, x19
  404284:	54ffff21 	b.ne	404268 <__libc_csu_init+0x48>  // b.any
  404288:	f9400bb3 	ldr	x19, [x29, #16]
  40428c:	a941d7f4 	ldp	x20, x21, [sp, #24]
  404290:	a942dff6 	ldp	x22, x23, [sp, #40]
  404294:	f9401ff8 	ldr	x24, [sp, #56]
  404298:	a8c47bfd 	ldp	x29, x30, [sp], #64
  40429c:	d65f03c0 	ret

00000000004042a0 <__libc_csu_fini>:
  4042a0:	d65f03c0 	ret

Disassembly of section .fini:

00000000004042a4 <_fini>:
  4042a4:	a9bf7bfd 	stp	x29, x30, [sp, #-16]!
  4042a8:	910003fd 	mov	x29, sp
  4042ac:	a8c17bfd 	ldp	x29, x30, [sp], #16
  4042b0:	d65f03c0 	ret

Disassembly of section .rodata:

00000000004042b8 <_IO_stdin_used>:
  4042b8:	00020001 	.inst	0x00020001 ; undefined
	...
  4042d0:	69736162 	ldpsw	x2, x24, [x11, #-104]
  4042d4:	74735f63 	.inst	0x74735f63 ; undefined
  4042d8:	676e6972 	.inst	0x676e6972 ; undefined
  4042dc:	4d5f3a3a 	.inst	0x4d5f3a3a ; undefined
  4042e0:	6e6f635f 	rsubhn2	v31.8h, v26.4s, v15.4s
  4042e4:	75727473 	.inst	0x75727473 ; undefined
  4042e8:	6e207463 	uabd	v3.16b, v3.16b, v0.16b
  4042ec:	206c6c75 	.inst	0x206c6c75 ; undefined
  4042f0:	20746f6e 	.inst	0x20746f6e ; undefined
  4042f4:	696c6176 	ldpsw	x22, x24, [x11, #-160]
  4042f8:	00000064 	udf	#100
  4042fc:	00000000 	udf	#0
  404300:	74636576 	.inst	0x74636576 ; undefined
  404304:	3a3a726f 	.inst	0x3a3a726f ; undefined
  404308:	725f4d5f 	.inst	0x725f4d5f ; undefined
  40430c:	6c6c6165 	ldnp	d5, d24, [x11, #-320]
  404310:	695f636f 	ldpsw	x15, x24, [x27, #248]
  404314:	7265736e 	.inst	0x7265736e ; undefined
  404318:	00000074 	udf	#116
  40431c:	00000000 	udf	#0
  404320:	64696f76 	.inst	0x64696f76 ; undefined
  404324:	696e6920 	ldpsw	x0, x26, [x9, #-144]
  404328:	00292874 	.inst	0x00292874 ; NYI
  40432c:	00000000 	udf	#0
  404330:	6e657473 	uabd	v19.8h, v3.8h, v5.8h
  404334:	2e6c6963 	.inst	0x2e6c6963 ; undefined
  404338:	00787863 	.inst	0x00787863 ; undefined
  40433c:	00000000 	udf	#0
  404340:	4174616d 	.inst	0x4174616d ; undefined
  404344:	554e3d21 	.inst	0x554e3d21 ; undefined
  404348:	00004c4c 	udf	#19532
  40434c:	00000000 	udf	#0
  404350:	4274616d 	.inst	0x4274616d ; undefined
  404354:	554e3d21 	.inst	0x554e3d21 ; undefined
  404358:	00004c4c 	udf	#19532
  40435c:	00000000 	udf	#0
  404360:	4374616d 	.inst	0x4374616d ; undefined
  404364:	554e3d21 	.inst	0x554e3d21 ; undefined
  404368:	00004c4c 	udf	#19532
  40436c:	00000000 	udf	#0
  404370:	696f7473 	ldpsw	x19, x29, [x3, #-136]
  404374:	00000000 	udf	#0
  404378:	205f305f 	.inst	0x205f305f ; undefined
  40437c:	00000000 	udf	#0
  404380:	38312520 	.inst	0x38312520 ; undefined
  404384:	6c35312e 	stnp	d14, d12, [x9, #-176]
  404388:	00000066 	udf	#102
  40438c:	00000000 	udf	#0
  404390:	31252020 	adds	w0, w1, #0x948
  404394:	6c302e30 	stnp	d16, d11, [x17, #-256]
  404398:	25202066 	.inst	0x25202066 ; undefined
  40439c:	332e3031 	.inst	0x332e3031 ; undefined
  4043a0:	2520666c 	.inst	0x2520666c ; undefined
  4043a4:	20646c6c 	.inst	0x20646c6c ; undefined
  4043a8:	646c6c25 	.inst	0x646c6c25 ; undefined
  4043ac:	6c6c2520 	ldnp	d0, d9, [x9, #-320]
  4043b0:	00000a64 	udf	#2660
  4043b4:	00000000 	udf	#0
  4043b8:	73697320 	.inst	0x73697320 ; undefined
  4043bc:	73205865 	.inst	0x73205865 ; undefined
  4043c0:	59657a69 	.inst	0x59657a69 ; undefined
  4043c4:	7a697320 	.inst	0x7a697320 ; undefined
  4043c8:	69205a65 	stgp	x5, x22, [x19, #-1024]
  4043cc:	73726574 	.inst	0x73726574 ; undefined
	...
  4043d8:	2f1a9fbe 	uqrshrn	v30.4h, v29.4s, #6
  4043dc:	3fea24dd 	.inst	0x3fea24dd ; undefined
  4043e0:	7f78bc09 	.inst	0x7f78bc09 ; undefined
  4043e4:	3fee7703 	.inst	0x3fee7703 ; undefined
  4043e8:	2d0e5604 	stp	s4, s21, [x16, #112]
  4043ec:	3fe39db2 	.inst	0x3fe39db2 ; undefined
  4043f0:	8b439581 	add	x1, x12, x3, lsr #37
  4043f4:	3fd3e76c 	.inst	0x3fd3e76c ; undefined

Disassembly of section .eh_frame_hdr:

00000000004043f8 <__GNU_EH_FRAME_HDR>:
  4043f8:	3b031b01 	.inst	0x3b031b01 ; undefined
  4043fc:	00000094 	udf	#148
  404400:	00000011 	udf	#17
  404404:	ffffd228 	.inst	0xffffd228 ; undefined
  404408:	000003fc 	udf	#1020
  40440c:	ffffd648 	.inst	0xffffd648 ; undefined
  404410:	00000458 	udf	#1112
  404414:	ffffd6b8 	.inst	0xffffd6b8 ; undefined
  404418:	000004d0 	udf	#1232
  40441c:	ffffd728 	.inst	0xffffd728 ; undefined
  404420:	000000ac 	udf	#172
  404424:	ffffd758 	.inst	0xffffd758 ; undefined
  404428:	000000c0 	udf	#192
  40442c:	ffffd798 	.inst	0xffffd798 ; undefined
  404430:	000000d4 	udf	#212
  404434:	ffffd7c8 	.inst	0xffffd7c8 ; undefined
  404438:	000000f8 	udf	#248
  40443c:	ffffd7e8 	.inst	0xffffd7e8 ; undefined
  404440:	00000124 	udf	#292
  404444:	fffff288 	.inst	0xfffff288 ; undefined
  404448:	000001ec 	udf	#492
  40444c:	fffff2d0 	.inst	0xfffff2d0 ; undefined
  404450:	00000210 	udf	#528
  404454:	fffff2e8 	.inst	0xfffff2e8 ; undefined
  404458:	00000304 	udf	#772
  40445c:	fffffb28 	.inst	0xfffffb28 ; undefined
  404460:	00000110 	udf	#272
  404464:	fffffb48 	.inst	0xfffffb48 ; undefined
  404468:	00000240 	udf	#576
  40446c:	fffffc08 	.inst	0xfffffc08 ; undefined
  404470:	0000027c 	udf	#636
  404474:	fffffce8 	.inst	0xfffffce8 ; undefined
  404478:	000002c4 	udf	#708
  40447c:	fffffe28 	.inst	0xfffffe28 ; undefined
  404480:	00000480 	udf	#1152
  404484:	fffffea8 	.inst	0xfffffea8 ; undefined
  404488:	000004b8 	udf	#1208

Disassembly of section .eh_frame:

0000000000404490 <__FRAME_END__-0x44c>:
  404490:	00000010 	udf	#16
  404494:	00000000 	udf	#0
  404498:	00527a01 	.inst	0x00527a01 ; undefined
  40449c:	011e7804 	.inst	0x011e7804 ; undefined
  4044a0:	001f0c1b 	.inst	0x001f0c1b ; undefined
  4044a4:	00000010 	udf	#16
  4044a8:	00000018 	udf	#24
  4044ac:	ffffd674 	.inst	0xffffd674 ; undefined
  4044b0:	00000030 	udf	#48
  4044b4:	00000000 	udf	#0
  4044b8:	00000010 	udf	#16
  4044bc:	0000002c 	udf	#44
  4044c0:	ffffd690 	.inst	0xffffd690 ; undefined
  4044c4:	0000003c 	udf	#60
  4044c8:	00000000 	udf	#0
  4044cc:	00000020 	udf	#32
  4044d0:	00000040 	udf	#64
  4044d4:	ffffd6bc 	.inst	0xffffd6bc ; undefined
  4044d8:	00000030 	udf	#48
  4044dc:	200e4100 	.inst	0x200e4100 ; undefined
  4044e0:	039e049d 	.inst	0x039e049d ; undefined
  4044e4:	48029342 	stlxrh	w2, w2, [x26]
  4044e8:	0ed3ddde 	.inst	0x0ed3ddde ; undefined
  4044ec:	00000000 	udf	#0
  4044f0:	00000014 	udf	#20
  4044f4:	00000064 	udf	#100
  4044f8:	ffffd6c8 	.inst	0xffffd6c8 ; undefined
  4044fc:	00000004 	udf	#4
	...
  404508:	00000010 	udf	#16
  40450c:	0000007c 	udf	#124
  404510:	fffffa10 	.inst	0xfffffa10 ; undefined
  404514:	0000001c 	udf	#28
  404518:	00000000 	udf	#0
  40451c:	000000c4 	udf	#196
  404520:	00000090 	udf	#144
  404524:	ffffd6bc 	.inst	0xffffd6bc ; undefined
  404528:	00001a98 	udf	#6808
  40452c:	e00e4100 	.inst	0xe00e4100 ; undefined
  404530:	ac9d420a 	stp	q10, q16, [x16], #928
  404534:	01ab9e01 	.inst	0x01ab9e01 ; undefined
  404538:	01a99450 	.inst	0x01a99450 ; undefined
  40453c:	4101aa93 	.inst	0x4101aa93 ; undefined
  404540:	9501a796 	bl	446e398 <__bss_end__+0x4059070>
  404544:	984101a8 	ldrsw	x8, 486578 <__bss_end__+0x71250>
  404548:	a69701a5 	.inst	0xa69701a5 ; undefined
  40454c:	a39a4101 	.inst	0xa39a4101 ; undefined
  404550:	01a49901 	.inst	0x01a49901 ; undefined
  404554:	01a19c41 	.inst	0x01a19c41 ; undefined
  404558:	4101a29b 	.inst	0x4101a29b ; undefined
  40455c:	019f4905 	.inst	0x019f4905 ; undefined
  404560:	01a04805 	.inst	0x01a04805 ; undefined
  404564:	06041003 	.inst	0x06041003 ; undefined
  404568:	41480649 	.inst	0x41480649 ; undefined
  40456c:	d641d3d4 	.inst	0xd641d3d4 ; undefined
  404570:	d7d841d5 	.inst	0xd7d841d5 ; undefined
  404574:	41d9da41 	.inst	0x41d9da41 ; undefined
  404578:	944edbdc 	bl	17bb4e8 <__bss_end__+0x13a61c0>
  40457c:	aa9301a9 	orr	x9, x13, x19, asr #0
  404580:	a7964201 	.inst	0xa7964201 ; undefined
  404584:	01a89501 	.inst	0x01a89501 ; undefined
  404588:	01a59841 	.inst	0x01a59841 ; undefined
  40458c:	4101a697 	.inst	0x4101a697 ; undefined
  404590:	9901a39a 	stlur	w26, [x28, #26]
  404594:	9c4101a4 	ldr	q4, 4865c8 <__bss_end__+0x712a0>
  404598:	a29b01a1 	.inst	0xa29b01a1 ; undefined
  40459c:	d4980201 	.inst	0xd4980201 ; undefined
  4045a0:	d5d641d3 	.inst	0xd5d641d3 ; undefined
  4045a4:	41d7d841 	.inst	0x41d7d841 ; undefined
  4045a8:	dc41d9da 	.inst	0xdc41d9da ; undefined
  4045ac:	dedd43db 	.inst	0xdedd43db ; undefined
  4045b0:	0e41000e 	.inst	0x0e41000e ; undefined
  4045b4:	aa930ae0 	orr	x0, x23, x19, asr #2
  4045b8:	01a99401 	.inst	0x01a99401 ; undefined
  4045bc:	9601a895 	bl	fffffffff846e810 <__bss_end__+0xfffffffff80594e8>
  4045c0:	a69701a7 	.inst	0xa69701a7 ; undefined
  4045c4:	01a59801 	.inst	0x01a59801 ; undefined
  4045c8:	9a01a499 	.inst	0x9a01a499 ; undefined
  4045cc:	a29b01a3 	.inst	0xa29b01a3 ; undefined
  4045d0:	01a19c01 	.inst	0x01a19c01 ; undefined
  4045d4:	9e01ac9d 	.inst	0x9e01ac9d ; undefined
  4045d8:	480501ab 	stxrh	w5, w11, [x13]
  4045dc:	490501a0 	.inst	0x490501a0 ; undefined
  4045e0:	0000019f 	udf	#415
  4045e4:	00000020 	udf	#32
  4045e8:	00000158 	udf	#344
  4045ec:	fffff094 	.inst	0xfffff094 ; undefined
  4045f0:	00000048 	udf	#72
  4045f4:	200e4100 	.inst	0x200e4100 ; undefined
  4045f8:	039e049d 	.inst	0x039e049d ; undefined
  4045fc:	4b029342 	.inst	0x4b029342 ; undefined
  404600:	0ed3ddde 	.inst	0x0ed3ddde ; undefined
  404604:	00000000 	udf	#0
  404608:	00000010 	udf	#16
  40460c:	0000017c 	udf	#380
  404610:	fffff0b8 	.inst	0xfffff0b8 ; undefined
  404614:	00000018 	udf	#24
  404618:	00000000 	udf	#0
  40461c:	00000018 	udf	#24
  404620:	00000000 	udf	#0
  404624:	4c507a01 	.inst	0x4c507a01 ; undefined
  404628:	78040052 	sturh	w18, [x2, #64]
  40462c:	419b071e 	.inst	0x419b071e ; undefined
  404630:	1b00010b 	madd	w11, w8, w0, w0
  404634:	001f0c1b 	.inst	0x001f0c1b ; undefined
  404638:	00000038 	udf	#56
  40463c:	00000020 	udf	#32
  404640:	fffff900 	.inst	0xfffff900 ; undefined
  404644:	000000bc 	udf	#188
  404648:	00029704 	.inst	0x00029704 ; undefined
  40464c:	500e4100 	adr	x0, 420e6e <__bss_end__+0xbb46>
  404650:	099e0a9d 	.inst	0x099e0a9d ; undefined
  404654:	94089342 	bl	62935c <__bss_end__+0x214034>
  404658:	06954207 	.inst	0x06954207 ; undefined
  40465c:	97430596 	bl	fffffffffd4c5cb4 <__bss_end__+0xfffffffffd0b098c>
  404660:	5e039804 	.inst	0x5e039804 ; undefined
  404664:	d7ddde0a 	.inst	0xd7ddde0a ; undefined
  404668:	d3d6d5d8 	.inst	0xd3d6d5d8 ; undefined
  40466c:	41000ed4 	.inst	0x41000ed4 ; undefined
  404670:	0000000b 	udf	#11
  404674:	00000044 	udf	#68
  404678:	000001e8 	udf	#488
  40467c:	fffff984 	.inst	0xfffff984 ; undefined
  404680:	000000dc 	udf	#220
  404684:	400e4100 	.inst	0x400e4100 ; undefined
  404688:	079e089d 	.inst	0x079e089d ; undefined
  40468c:	96049542 	bl	fffffffff8529b94 <__bss_end__+0xfffffffff811486c>
  404690:	06934203 	.inst	0x06934203 ; undefined
  404694:	0a530594 	and	w20, w12, w19, lsr #1
  404698:	d6d5ddde 	.inst	0xd6d5ddde ; undefined
  40469c:	000ed4d3 	.inst	0x000ed4d3 ; undefined
  4046a0:	0a460b41 	and	w1, w26, w6, lsr #2
  4046a4:	d6d5ddde 	.inst	0xd6d5ddde ; undefined
  4046a8:	000ed4d3 	.inst	0x000ed4d3 ; undefined
  4046ac:	0a530b41 	and	w1, w26, w19, lsr #2
  4046b0:	d6d5ddde 	.inst	0xd6d5ddde ; undefined
  4046b4:	000ed4d3 	.inst	0x000ed4d3 ; undefined
  4046b8:	00000b41 	udf	#2881
  4046bc:	0000003c 	udf	#60
  4046c0:	00000230 	udf	#560
  4046c4:	fffffa1c 	.inst	0xfffffa1c ; undefined
  4046c8:	00000128 	udf	#296
  4046cc:	600e4100 	.inst	0x600e4100 ; undefined
  4046d0:	0b9e0c9d 	add	w29, w4, w30, asr #3
  4046d4:	96089544 	bl	fffffffff8629be4 <__bss_end__+0xfffffffff82148bc>
  4046d8:	9a049907 	.inst	0x9a049907 ; undefined
  4046dc:	0a934603 	and	w3, w16, w19, asr #17
  4046e0:	06970994 	.inst	0x06970994 ; undefined
  4046e4:	029b0598 	.inst	0x029b0598 ; undefined
  4046e8:	0a61019c 	bic	w28, w12, w1, lsr #0
  4046ec:	dcdbddde 	.inst	0xdcdbddde ; undefined
  4046f0:	d8d7dad9 	prfm	#0x19, 3b4248 <_init-0x4d0c8>
  4046f4:	d4d3d6d5 	.inst	0xd4d3d6d5 ; undefined
  4046f8:	0b41000e 	add	w14, w0, w1, lsr #0
  4046fc:	000000f4 	udf	#244
  404700:	00000270 	udf	#624
  404704:	ffffefdc 	.inst	0xffffefdc ; undefined
  404708:	00000824 	udf	#2084
  40470c:	e00e4200 	.inst	0xe00e4200 ; undefined
  404710:	9e1c9d01 	.inst	0x9e1c9d01 ; undefined
  404714:	1a93441b 	csinc	w27, w0, w19, mi  // mi = first
  404718:	9f021994 	.inst	0x9f021994 ; undefined
  40471c:	1499139a 	b	2a49584 <__bss_end__+0x263425c>
  404720:	95179658 	bl	49ea080 <__bss_end__+0x45d4d58>
  404724:	15984318 	b	6a15384 <__bss_end__+0x660005c>
  404728:	9c431697 	ldr	q23, 48a9f8 <__bss_end__+0x756d0>
  40472c:	42129b11 	.inst	0x42129b11 ; undefined
  404730:	050f4905 	.inst	0x050f4905 ; undefined
  404734:	05421048 	eor	z8.d, z8.d, #0xc000000000000001
  404738:	4a050d4b 	eor	w11, w10, w5, lsl #3
  40473c:	4d05420e 	.inst	0x4d05420e ; undefined
  404740:	0c4c050b 	.inst	0x0c4c050b ; undefined
  404744:	49066e02 	.inst	0x49066e02 ; undefined
  404748:	d6414806 	.inst	0xd6414806 ; undefined
  40474c:	d7d841d5 	.inst	0xd7d841d5 ; undefined
  404750:	41d9da41 	.inst	0x41d9da41 ; undefined
  404754:	0641dbdc 	.inst	0x0641dbdc ; undefined
  404758:	414a064b 	.inst	0x414a064b ; undefined
  40475c:	4c064d06 	.inst	0x4c064d06 ; undefined
  404760:	de0a7d02 	.inst	0xde0a7d02 ; undefined
  404764:	0ed4d3dd 	.inst	0x0ed4d3dd ; undefined
  404768:	5f0b4100 	.inst	0x5f0b4100 ; undefined
  40476c:	139a1499 	extr	w25, w4, w26, #5
  404770:	44d9da41 	.inst	0x44d9da41 ; undefined
  404774:	9517960a 	bl	49e9f9c <__bss_end__+0x45d4c74>
  404778:	15984618 	b	6a15fd8 <__bss_end__+0x6600cb0>
  40477c:	9a411697 	.inst	0x9a411697 ; undefined
  404780:	41149913 	.inst	0x41149913 ; undefined
  404784:	129b119c 	mov	w28, #0xffff2773            	// #-55437
  404788:	0f490541 	.inst	0x0f490541 ; undefined
  40478c:	41104805 	.inst	0x41104805 ; undefined
  404790:	050d4b05 	.inst	0x050d4b05 ; undefined
  404794:	05410e4a 	eor	z10.b, z10.b, #0x83
  404798:	4c050b4d 	.inst	0x4c050b4d ; undefined
  40479c:	430b410c 	.inst	0x430b410c ; undefined
  4047a0:	9517960a 	bl	49e9fc8 <__bss_end__+0x45d4ca0>
  4047a4:	15984618 	b	6a16004 <__bss_end__+0x6600cdc>
  4047a8:	9a411697 	.inst	0x9a411697 ; undefined
  4047ac:	41149913 	.inst	0x41149913 ; undefined
  4047b0:	129b119c 	mov	w28, #0xffff2773            	// #-55437
  4047b4:	0f490541 	.inst	0x0f490541 ; undefined
  4047b8:	41104805 	.inst	0x41104805 ; undefined
  4047bc:	050d4b05 	.inst	0x050d4b05 ; undefined
  4047c0:	05410e4a 	eor	z10.b, z10.b, #0x83
  4047c4:	4c050b4d 	.inst	0x4c050b4d ; undefined
  4047c8:	430b410c 	.inst	0x430b410c ; undefined
  4047cc:	18951796 	ldr	w22, 32eabc <_init-0xd2854>
  4047d0:	97159846 	bl	fffffffffc96a8e8 <__bss_end__+0xfffffffffc5555c0>
  4047d4:	139a4116 	extr	w22, w8, w26, #16
  4047d8:	9c411499 	ldr	q25, 486a68 <__bss_end__+0x71740>
  4047dc:	41129b11 	.inst	0x41129b11 ; undefined
  4047e0:	050f4905 	.inst	0x050f4905 ; undefined
  4047e4:	05411048 	eor	z8.s, z8.s, #0xc0000001
  4047e8:	4a050d4b 	eor	w11, w10, w5, lsl #3
  4047ec:	4d05410e 	.inst	0x4d05410e ; undefined
  4047f0:	0c4c050b 	.inst	0x0c4c050b ; undefined
  4047f4:	00000058 	udf	#88
  4047f8:	000001dc 	udf	#476
  4047fc:	ffffce24 	.inst	0xffffce24 ; undefined
  404800:	00000414 	udf	#1044
  404804:	0000eb04 	udf	#60164
  404808:	b00e4100 	adrp	x0, 1cc25000 <__bss_end__+0x1c80fcd8>
  40480c:	9e169d01 	.inst	0x9e169d01 ; undefined
  404810:	14934415 	b	28d5864 <__bss_end__+0x24c053c>
  404814:	95491394 	bl	5649664 <__bss_end__+0x523433c>
  404818:	97119612 	bl	fffffffffc86a060 <__bss_end__+0xfffffffffc454d38>
  40481c:	990f9810 	.inst	0x990f9810 ; undefined
  404820:	9b0d9a0e 	msub	x14, x16, x13, x6
  404824:	0b4c050c 	add	w12, w8, w12, lsr #1
  404828:	050a4805 	.inst	0x050a4805 ; undefined
  40482c:	4a050949 	eor	w9, w10, w5, lsl #2
  404830:	074b0508 	.inst	0x074b0508 ; undefined
  404834:	de0abd02 	.inst	0xde0abd02 ; undefined
  404838:	dad9dbdd 	.inst	0xdad9dbdd ; undefined
  40483c:	d6d5d8d7 	.inst	0xd6d5d8d7 ; undefined
  404840:	4c06d4d3 	.inst	0x4c06d4d3 ; undefined
  404844:	4b064a06 	sub	w6, w16, w6, lsl #18
  404848:	49064806 	.inst	0x49064806 ; undefined
  40484c:	0b41000e 	add	w14, w0, w1, lsr #0
  404850:	00000024 	udf	#36
  404854:	000003c4 	udf	#964
  404858:	ffffd1e8 	.inst	0xffffd1e8 ; undefined
  40485c:	00000068 	udf	#104
  404860:	300e4100 	adr	x0, 421081 <__bss_end__+0xbd59>
  404864:	059e069d 	mov	z29.s, p14/z, #52
  404868:	94049342 	bl	529570 <__bss_end__+0x114248>
  40486c:	02954503 	.inst	0x02954503 ; undefined
  404870:	d5ddde51 	.inst	0xd5ddde51 ; undefined
  404874:	000ed4d3 	.inst	0x000ed4d3 ; undefined
  404878:	00000034 	udf	#52
  40487c:	000003ec 	udf	#1004
  404880:	fffff9a0 	.inst	0xfffff9a0 ; undefined
  404884:	00000080 	udf	#128
  404888:	400e4100 	.inst	0x400e4100 ; undefined
  40488c:	079e089d 	.inst	0x079e089d ; undefined
  404890:	411d0d41 	.inst	0x411d0d41 ; undefined
  404894:	04950594 	udiv	z20.s, p1/m, z20.s, z12.s
  404898:	97039648 	bl	fffffffffc4ea1b8 <__bss_end__+0xfffffffffc0d4e90>
  40489c:	46019802 	.inst	0x46019802 ; undefined
  4048a0:	d34a0693 	ubfiz	x19, x20, #54, #2
  4048a4:	d8ddde44 	prfm	pldl3keep, 3c046c <_init-0x40ea4>
  4048a8:	d5d4d7d6 	.inst	0xd5d4d7d6 ; undefined
  4048ac:	00001f0c 	udf	#7948
  4048b0:	00000014 	udf	#20
  4048b4:	00000424 	udf	#1060
  4048b8:	fffff9e8 	.inst	0xfffff9e8 ; undefined
  4048bc:	00000004 	udf	#4
	...
  4048c8:	00000010 	udf	#16
  4048cc:	0000043c 	udf	#1084
  4048d0:	ffffd1e0 	.inst	0xffffd1e0 ; undefined
  4048d4:	0000000c 	udf	#12
  4048d8:	00000000 	udf	#0

00000000004048dc <__FRAME_END__>:
  4048dc:	00000000 	udf	#0

Disassembly of section .gcc_except_table:

00000000004048e0 <.gcc_except_table>:
  4048e0:	0a01ffff 	.inst	0x0a01ffff ; undefined
  4048e4:	01ac6844 	.inst	0x01ac6844 ; undefined
  4048e8:	0401b800 	.inst	0x0401b800 ; undefined
  4048ec:	00000000 	udf	#0
  4048f0:	01559bff 	.inst	0x01559bff ; undefined
  4048f4:	b004384a 	adrp	x10, 8b0d000 <__bss_end__+0x86f7cd8>
  4048f8:	04600106 	add	z6.h, z8.h, z0.h
  4048fc:	a00307a4 	.inst	0xa00307a4 ; undefined
  404900:	06b00401 	.inst	0x06b00401 ; undefined
  404904:	0401b801 	.inst	0x0401b801 ; undefined
  404908:	ec03079c 	.inst	0xec03079c ; undefined
  40490c:	06b00401 	.inst	0x06b00401 ; undefined
  404910:	04028401 	.inst	0x04028401 ; undefined
  404914:	b80307a0 	str	w0, [x29], #48
  404918:	06b00402 	.inst	0x06b00402 ; undefined
  40491c:	0402d001 	mad	z1.b, p4/m, z2.b, z0.b
  404920:	a40306f8 	ld1rqb	{z24.b}, p1/z, [x23, x3]
  404924:	0002bc03 	.inst	0x0002bc03 ; undefined
  404928:	3006c800 	adr	x0, 412229 <__FRAME_END__+0xd94d>
  40492c:	c80007bc 	stxr	w0, x28, [x29]
  404930:	00000407 	udf	#1031
  404934:	bc2807d8 	.inst	0xbc2807d8 ; undefined
  404938:	08800007 	stllrb	w7, [x0]
  40493c:	01000004 	.inst	0x01000004 ; undefined
  404940:	007d0000 	.inst	0x007d0000 ; undefined
  404944:	00000000 	udf	#0

Disassembly of section .init_array:

0000000000414d88 <__frame_dummy_init_array_entry>:
  414d88:	00401bc0 	.inst	0x00401bc0 ; undefined
  414d8c:	00000000 	udf	#0
  414d90:	00401a40 	.inst	0x00401a40 ; undefined
  414d94:	00000000 	udf	#0
  414d98:	00401ab0 	.inst	0x00401ab0 ; undefined
  414d9c:	00000000 	udf	#0

Disassembly of section .fini_array:

0000000000414da0 <__do_global_dtors_aux_fini_array_entry>:
  414da0:	00401b90 	.inst	0x00401b90 ; undefined
  414da4:	00000000 	udf	#0

Disassembly of section .dynamic:

0000000000414da8 <_DYNAMIC>:
  414da8:	00000001 	udf	#1
  414dac:	00000000 	udf	#0
  414db0:	000003bd 	udf	#957
  414db4:	00000000 	udf	#0
  414db8:	00000001 	udf	#1
  414dbc:	00000000 	udf	#0
  414dc0:	000003cc 	udf	#972
  414dc4:	00000000 	udf	#0
  414dc8:	00000001 	udf	#1
  414dcc:	00000000 	udf	#0
  414dd0:	000003d6 	udf	#982
  414dd4:	00000000 	udf	#0
  414dd8:	00000001 	udf	#1
  414ddc:	00000000 	udf	#0
  414de0:	000003e3 	udf	#995
  414de4:	00000000 	udf	#0
  414de8:	00000001 	udf	#1
  414dec:	00000000 	udf	#0
  414df0:	000003f1 	udf	#1009
  414df4:	00000000 	udf	#0
  414df8:	00000001 	udf	#1
  414dfc:	00000000 	udf	#0
  414e00:	00000401 	udf	#1025
  414e04:	00000000 	udf	#0
  414e08:	0000000c 	udf	#12
  414e0c:	00000000 	udf	#0
  414e10:	00401310 	.inst	0x00401310 ; undefined
  414e14:	00000000 	udf	#0
  414e18:	0000000d 	udf	#13
  414e1c:	00000000 	udf	#0
  414e20:	004042a4 	.inst	0x004042a4 ; undefined
  414e24:	00000000 	udf	#0
  414e28:	00000019 	udf	#25
  414e2c:	00000000 	udf	#0
  414e30:	00414d88 	.inst	0x00414d88 ; undefined
  414e34:	00000000 	udf	#0
  414e38:	0000001b 	udf	#27
  414e3c:	00000000 	udf	#0
  414e40:	00000018 	udf	#24
  414e44:	00000000 	udf	#0
  414e48:	0000001a 	udf	#26
  414e4c:	00000000 	udf	#0
  414e50:	00414da0 	.inst	0x00414da0 ; undefined
  414e54:	00000000 	udf	#0
  414e58:	0000001c 	udf	#28
  414e5c:	00000000 	udf	#0
  414e60:	00000008 	udf	#8
  414e64:	00000000 	udf	#0
  414e68:	00000004 	udf	#4
  414e6c:	00000000 	udf	#0
  414e70:	00400278 	.inst	0x00400278 ; undefined
  414e74:	00000000 	udf	#0
  414e78:	6ffffef5 	.inst	0x6ffffef5 ; undefined
  414e7c:	00000000 	udf	#0
  414e80:	004003d8 	.inst	0x004003d8 ; undefined
  414e84:	00000000 	udf	#0
  414e88:	00000005 	udf	#5
  414e8c:	00000000 	udf	#0
  414e90:	00400890 	.inst	0x00400890 ; undefined
  414e94:	00000000 	udf	#0
  414e98:	00000006 	udf	#6
  414e9c:	00000000 	udf	#0
  414ea0:	00400410 	.inst	0x00400410 ; undefined
  414ea4:	00000000 	udf	#0
  414ea8:	0000000a 	udf	#10
  414eac:	00000000 	udf	#0
  414eb0:	00000489 	udf	#1161
  414eb4:	00000000 	udf	#0
  414eb8:	0000000b 	udf	#11
  414ebc:	00000000 	udf	#0
  414ec0:	00000018 	udf	#24
  414ec4:	00000000 	udf	#0
  414ec8:	00000015 	udf	#21
	...
  414ed8:	00000003 	udf	#3
  414edc:	00000000 	udf	#0
  414ee0:	00414fe8 	.inst	0x00414fe8 ; undefined
  414ee4:	00000000 	udf	#0
  414ee8:	00000002 	udf	#2
  414eec:	00000000 	udf	#0
  414ef0:	00000420 	udf	#1056
  414ef4:	00000000 	udf	#0
  414ef8:	00000014 	udf	#20
  414efc:	00000000 	udf	#0
  414f00:	00000007 	udf	#7
  414f04:	00000000 	udf	#0
  414f08:	00000017 	udf	#23
  414f0c:	00000000 	udf	#0
  414f10:	00400ef0 	.inst	0x00400ef0 ; undefined
  414f14:	00000000 	udf	#0
  414f18:	00000007 	udf	#7
  414f1c:	00000000 	udf	#0
  414f20:	00400ec0 	.inst	0x00400ec0 ; undefined
  414f24:	00000000 	udf	#0
  414f28:	00000008 	udf	#8
  414f2c:	00000000 	udf	#0
  414f30:	00000030 	udf	#48
  414f34:	00000000 	udf	#0
  414f38:	00000009 	udf	#9
  414f3c:	00000000 	udf	#0
  414f40:	00000018 	udf	#24
  414f44:	00000000 	udf	#0
  414f48:	6ffffffe 	.inst	0x6ffffffe ; undefined
  414f4c:	00000000 	udf	#0
  414f50:	00400d80 	.inst	0x00400d80 ; undefined
  414f54:	00000000 	udf	#0
  414f58:	6fffffff 	.inst	0x6fffffff ; undefined
  414f5c:	00000000 	udf	#0
  414f60:	00000006 	udf	#6
  414f64:	00000000 	udf	#0
  414f68:	6ffffff0 	.inst	0x6ffffff0 ; undefined
  414f6c:	00000000 	udf	#0
  414f70:	00400d1a 	.inst	0x00400d1a ; undefined
	...

Disassembly of section .got:

0000000000414fd8 <_GLOBAL_OFFSET_TABLE_>:
  414fd8:	00414da8 	.inst	0x00414da8 ; undefined
	...

Disassembly of section .got.plt:

0000000000414fe8 <.got.plt>:
	...
  415000:	00401330 	.inst	0x00401330 ; undefined
  415004:	00000000 	udf	#0
  415008:	00401330 	.inst	0x00401330 ; undefined
  41500c:	00000000 	udf	#0
  415010:	00401330 	.inst	0x00401330 ; undefined
  415014:	00000000 	udf	#0
  415018:	00401330 	.inst	0x00401330 ; undefined
  41501c:	00000000 	udf	#0
  415020:	00401330 	.inst	0x00401330 ; undefined
  415024:	00000000 	udf	#0
  415028:	00401330 	.inst	0x00401330 ; undefined
  41502c:	00000000 	udf	#0
  415030:	00401330 	.inst	0x00401330 ; undefined
  415034:	00000000 	udf	#0
  415038:	00401330 	.inst	0x00401330 ; undefined
  41503c:	00000000 	udf	#0
  415040:	00401330 	.inst	0x00401330 ; undefined
  415044:	00000000 	udf	#0
  415048:	00401330 	.inst	0x00401330 ; undefined
  41504c:	00000000 	udf	#0
  415050:	00401330 	.inst	0x00401330 ; undefined
  415054:	00000000 	udf	#0
  415058:	00401330 	.inst	0x00401330 ; undefined
  41505c:	00000000 	udf	#0
  415060:	00401330 	.inst	0x00401330 ; undefined
  415064:	00000000 	udf	#0
  415068:	00401330 	.inst	0x00401330 ; undefined
  41506c:	00000000 	udf	#0
  415070:	00401330 	.inst	0x00401330 ; undefined
  415074:	00000000 	udf	#0
  415078:	00401330 	.inst	0x00401330 ; undefined
  41507c:	00000000 	udf	#0
  415080:	00401330 	.inst	0x00401330 ; undefined
  415084:	00000000 	udf	#0
  415088:	00401330 	.inst	0x00401330 ; undefined
  41508c:	00000000 	udf	#0
  415090:	00401330 	.inst	0x00401330 ; undefined
  415094:	00000000 	udf	#0
  415098:	00401330 	.inst	0x00401330 ; undefined
  41509c:	00000000 	udf	#0
  4150a0:	00401330 	.inst	0x00401330 ; undefined
  4150a4:	00000000 	udf	#0
  4150a8:	00401330 	.inst	0x00401330 ; undefined
  4150ac:	00000000 	udf	#0
  4150b0:	00401330 	.inst	0x00401330 ; undefined
  4150b4:	00000000 	udf	#0
  4150b8:	00401330 	.inst	0x00401330 ; undefined
  4150bc:	00000000 	udf	#0
  4150c0:	00401330 	.inst	0x00401330 ; undefined
  4150c4:	00000000 	udf	#0
  4150c8:	00401330 	.inst	0x00401330 ; undefined
  4150cc:	00000000 	udf	#0
  4150d0:	00401330 	.inst	0x00401330 ; undefined
  4150d4:	00000000 	udf	#0
  4150d8:	00401330 	.inst	0x00401330 ; undefined
  4150dc:	00000000 	udf	#0
  4150e0:	00401330 	.inst	0x00401330 ; undefined
  4150e4:	00000000 	udf	#0
  4150e8:	00401330 	.inst	0x00401330 ; undefined
  4150ec:	00000000 	udf	#0
  4150f0:	00401330 	.inst	0x00401330 ; undefined
  4150f4:	00000000 	udf	#0
  4150f8:	00401330 	.inst	0x00401330 ; undefined
  4150fc:	00000000 	udf	#0
  415100:	00401330 	.inst	0x00401330 ; undefined
  415104:	00000000 	udf	#0
  415108:	00401330 	.inst	0x00401330 ; undefined
  41510c:	00000000 	udf	#0
  415110:	00401330 	.inst	0x00401330 ; undefined
  415114:	00000000 	udf	#0
  415118:	00401330 	.inst	0x00401330 ; undefined
  41511c:	00000000 	udf	#0
  415120:	00401330 	.inst	0x00401330 ; undefined
  415124:	00000000 	udf	#0
  415128:	00401330 	.inst	0x00401330 ; undefined
  41512c:	00000000 	udf	#0
  415130:	00401330 	.inst	0x00401330 ; undefined
  415134:	00000000 	udf	#0
  415138:	00401330 	.inst	0x00401330 ; undefined
  41513c:	00000000 	udf	#0
  415140:	00401330 	.inst	0x00401330 ; undefined
  415144:	00000000 	udf	#0
  415148:	00401330 	.inst	0x00401330 ; undefined
  41514c:	00000000 	udf	#0
  415150:	00401330 	.inst	0x00401330 ; undefined
  415154:	00000000 	udf	#0
  415158:	00401330 	.inst	0x00401330 ; undefined
  41515c:	00000000 	udf	#0

Disassembly of section .data:

0000000000415160 <__data_start>:
	...

0000000000415168 <__dso_handle>:
	...

0000000000415170 <DW.ref.__gxx_personality_v0>:
  415170:	00401570 	.inst	0x00401570 ; undefined
  415174:	00000000 	udf	#0

Disassembly of section .bss:

0000000000415178 <_ZSt4cout@GLIBCXX_3.4>:
	...

0000000000415288 <completed.0>:
	...

0000000000415290 <DIMZ>:
	...

0000000000415298 <DIMY>:
	...

00000000004152a0 <DIMX>:
	...

00000000004152a8 <matA>:
	...

00000000004152b0 <xyplane>:
	...

00000000004152b8 <MAXX>:
	...

00000000004152c0 <matB>:
	...

00000000004152c8 <matC>:
	...

00000000004152d0 <power_17>:
	...

00000000004152e8 <_ZL2tz>:
	...

00000000004152f0 <_ZL2tv>:
	...

0000000000415300 <MATsize>:
	...

0000000000415308 <MAXZ>:
	...

0000000000415310 <MAXY>:
	...

0000000000415318 <iters>:
	...

0000000000415320 <_ZStL8__ioinit>:
	...

Disassembly of section .comment:

0000000000000000 <.comment>:
   0:	3a434347 	ccmn	w26, w3, #0x7, mi  // mi = first
   4:	4e472820 	trn1	v0.8h, v1.8h, v7.8h
   8:	37202955 	tbnz	w21, #4, 530 <_init-0x400de0>
   c:	312e332e 	adds	w14, w25, #0xb8c
  10:	31303220 	adds	w0, w17, #0xc0c
  14:	31373038 	adds	w24, w1, #0xdcc
  18:	52282032 	eor	w18, w1, #0xff000001
  1c:	48206465 	.inst	0x48206465 ; undefined
  20:	37207461 	tbnz	w1, #4, eac <_init-0x400464>
  24:	312e332e 	adds	w14, w25, #0xb8c
  28:	2935312d 	stp	w13, w12, [x9, #-88]
  2c:	43434700 	.inst	0x43434700 ; undefined
  30:	4728203a 	.inst	0x4728203a ; undefined
  34:	2029554e 	.inst	0x2029554e ; undefined
  38:	322e3131 	orr	w17, w9, #0x7ffc0000
  3c:	Address 0x000000000000003c is out of bounds.


Disassembly of section .debug_aranges:

0000000000000000 <.debug_aranges>:
   0:	0000002c 	udf	#44
   4:	00000002 	udf	#2
   8:	00080000 	.inst	0x00080000 ; undefined
   c:	00000000 	udf	#0
  10:	00401ab0 	.inst	0x00401ab0 ; undefined
  14:	00000000 	udf	#0
  18:	0000000c 	udf	#12
	...

Disassembly of section .debug_info:

0000000000000000 <.debug_info>:
   0:	00000041 	udf	#65
   4:	08010005 	stxrb	w1, w5, [x0]
   8:	00000000 	udf	#0
   c:	00000001 	udf	#1
  10:	00001d00 	udf	#7424
  14:	00950000 	.inst	0x00950000 ; undefined
  18:	000c0000 	.inst	0x000c0000 ; undefined
	...
  28:	6c020000 	stnp	d0, d0, [x0, #32]
  2c:	01000000 	.inst	0x01000000 ; undefined
  30:	1ab00120 	.inst	0x1ab00120 ; undefined
  34:	00000040 	udf	#64
  38:	000c0000 	.inst	0x000c0000 ; undefined
  3c:	00000000 	udf	#0
  40:	9c010000 	ldr	q0, 2040 <_init-0x3ff2d0>
	...

Disassembly of section .debug_abbrev:

0000000000000000 <.debug_abbrev>:
   0:	25011101 	cmpge	p1.b, p4/z, z8.b, #1
   4:	030b130e 	.inst	0x030b130e ; undefined
   8:	551f1b1f 	.inst	0x551f1b1f ; undefined
   c:	10011117 	adr	x23, 222c <_init-0x3ff0e4>
  10:	02000017 	.inst	0x02000017 ; undefined
  14:	0e03002e 	tbl	v14.8b, {v1.16b}, v3.8b
  18:	0b3b0b3a 	add	w26, w25, w27, uxtb #2
  1c:	19270b39 	.inst	0x19270b39 ; undefined
  20:	07120111 	.inst	0x07120111 ; undefined
  24:	197a1840 	.inst	0x197a1840 ; undefined
  28:	Address 0x0000000000000028 is out of bounds.


Disassembly of section .debug_line:

0000000000000000 <.debug_line>:
   0:	00000055 	udf	#85
   4:	00080005 	.inst	0x00080005 ; undefined
   8:	0000002e 	udf	#46
   c:	fb010104 	.inst	0xfb010104 ; undefined
  10:	01000d0e 	.inst	0x01000d0e ; undefined
  14:	00010101 	.inst	0x00010101 ; undefined
  18:	00010000 	.inst	0x00010000 ; undefined
  1c:	01010100 	.inst	0x01010100 ; undefined
  20:	0095021f 	.inst	0x0095021f ; undefined
  24:	01250000 	.inst	0x01250000 ; undefined
  28:	01020000 	.inst	0x01020000 ; undefined
  2c:	020f021f 	.inst	0x020f021f ; undefined
  30:	00000000 	udf	#0
  34:	00008700 	udf	#34560
  38:	01050100 	.inst	0x01050100 ; undefined
  3c:	b0020900 	adrp	x0, 4121000 <__bss_end__+0x3d0bcd8>
  40:	0000401a 	udf	#16410
  44:	03000000 	.inst	0x03000000 ; undefined
  48:	03050120 	.inst	0x03050120 ; undefined
  4c:	2e1c0514 	.inst	0x2e1c0514 ; undefined
  50:	13060105 	sbfiz	w5, w8, #26, #1
  54:	01000102 	.inst	0x01000102 ; undefined
  58:	Address 0x0000000000000058 is out of bounds.


Disassembly of section .debug_str:

0000000000000000 <.debug_str>:
   0:	20554e47 	.inst	0x20554e47 ; undefined
   4:	20373143 	.inst	0x20373143 ; undefined
   8:	322e3131 	orr	w17, w9, #0x7ffc0000
   c:	2d20302e 	stp	s14, s12, [x1, #-256]
  10:	74696c6d 	.inst	0x74696c6d ; undefined
  14:	2d656c74 	ldp	s20, s27, [x3, #-216]
  18:	69646e65 	ldpsw	x5, x27, [x19, #-224]
  1c:	2d206e61 	stp	s1, s27, [x19, #-256]
  20:	6962616d 	ldpsw	x13, x24, [x11, #-240]
  24:	36706c3d 	tbz	w29, #14, da8 <_init-0x400568>
  28:	672d2034 	.inst	0x672d2034 ; undefined
  2c:	20672d20 	.inst	0x20672d20 ; undefined
  30:	2d20672d 	stp	s13, s25, [x25, #-256]
  34:	2d20324f 	stp	s15, s12, [x18, #-256]
  38:	2d20324f 	stp	s15, s12, [x18, #-256]
  3c:	2d20324f 	stp	s15, s12, [x18, #-256]
  40:	69756266 	ldpsw	x6, x24, [x19, #-88]
  44:	6e69646c 	umax	v12.8h, v3.8h, v9.8h
  48:	696c2d67 	ldpsw	x7, x11, [x11, #-160]
  4c:	63636762 	.inst	0x63636762 ; undefined
  50:	6e662d20 	uqsub	v0.8h, v9.8h, v6.8h
  54:	74732d6f 	.inst	0x74732d6f ; undefined
  58:	2d6b6361 	ldp	s1, s24, [x27, #-168]
  5c:	746f7270 	.inst	0x746f7270 ; undefined
  60:	6f746365 	umlsl2	v5.4s, v27.8h, v4.h[3]
  64:	662d2072 	.inst	0x662d2072 ; undefined
  68:	00434950 	.inst	0x00434950 ; undefined
  6c:	5f746573 	.inst	0x5f746573 ; undefined
  70:	74736166 	.inst	0x74736166 ; undefined
  74:	74616d5f 	.inst	0x74616d5f ; undefined
  78:	Address 0x0000000000000078 is out of bounds.


Disassembly of section .debug_line_str:

0000000000000000 <.debug_line_str>:
   0:	706d742f 	adr	x15, dae87 <_init-0x326489>
   4:	6363672f 	.inst	0x6363672f ; undefined
   8:	3332322f 	.inst	0x3332322f ; undefined
   c:	6f632e2f 	.inst	0x6f632e2f ; undefined
  10:	2f6e616e 	umlsl	v14.4s, v11.4h, v14.h[2]
  14:	61746164 	.inst	0x61746164 ; undefined
  18:	6363672f 	.inst	0x6363672f ; undefined
  1c:	312f3131 	adds	w17, w9, #0xbcc
  20:	2e322e31 	uqsub	v17.8b, v17.8b, v18.8b
  24:	32322e30 	orr	w16, w17, #0x3ffc000
  28:	6e692f33 	uqsub	v19.8h, v25.8h, v9.8h
  2c:	2f617266 	fcmla	v6.4h, v19.4h, v1.h[1], #270
  30:	62617473 	.inst	0x62617473 ; undefined
  34:	622f656c 	.inst	0x622f656c ; undefined
  38:	646c6975 	.inst	0x646c6975 ; undefined
  3c:	6635632f 	.inst	0x6635632f ; undefined
  40:	31333833 	adds	w19, w1, #0xcce
  44:	39366264 	strb	w4, [x19, #3480]
  48:	30646264 	adr	x4, c8c95 <_init-0x33867b>
  4c:	64393865 	.inst	0x64393865 ; undefined
  50:	31393037 	adds	w23, w1, #0xe4c
  54:	39623836 	ldrb	w22, [x1, #2190]
  58:	62653031 	.inst	0x62653031 ; undefined
  5c:	66326635 	.inst	0x66326635 ; undefined
  60:	66653434 	.inst	0x66653434 ; undefined
  64:	63672f36 	.inst	0x63672f36 ; undefined
  68:	31312d63 	adds	w3, w11, #0xc4b
  6c:	302e322e 	adr	x14, 5c6b1 <_init-0x3a4c5f>
  70:	62696c2f 	.inst	0x62696c2f ; undefined
  74:	2f636367 	umlsl	v7.4s, v27.4h, v3.h[2]
  78:	666e6f63 	.inst	0x666e6f63 ; undefined
  7c:	612f6769 	.inst	0x612f6769 ; undefined
  80:	68637261 	.inst	0x68637261 ; undefined
  84:	632f3436 	.inst	0x632f3436 ; undefined
  88:	61667472 	.inst	0x61667472 ; undefined
  8c:	616d7473 	.inst	0x616d7473 ; undefined
  90:	632e6874 	.inst	0x632e6874 ; undefined
  94:	6d742f00 	ldp	d0, d11, [x24, #-192]
  98:	63672f70 	.inst	0x63672f70 ; undefined
  9c:	32322f63 	orr	w3, w27, #0x3ffc000
  a0:	632e2f33 	.inst	0x632e2f33 ; undefined
  a4:	6e616e6f 	umin	v15.8h, v19.8h, v1.8h
  a8:	7461642f 	.inst	0x7461642f ; undefined
  ac:	63672f61 	.inst	0x63672f61 ; undefined
  b0:	2f313163 	.inst	0x2f313163 ; undefined
  b4:	322e3131 	orr	w17, w9, #0x7ffc0000
  b8:	322e302e 	orr	w14, w1, #0x7ffc0000
  bc:	692f3332 	stgp	x18, x12, [x25, #-544]
  c0:	6172666e 	.inst	0x6172666e ; undefined
  c4:	6174732f 	.inst	0x6174732f ; undefined
  c8:	2f656c62 	.inst	0x2f656c62 ; undefined
  cc:	6c697562 	ldnp	d2, d29, [x11, #-368]
  d0:	35632f64 	cbnz	w4, c66bc <_init-0x33ac54>
  d4:	33383366 	.inst	0x33383366 ; undefined
  d8:	36626431 	tbz	w17, #12, 4d5c <_init-0x3fc5b4>
  dc:	64626439 	.inst	0x64626439 ; undefined
  e0:	39386530 	strb	w16, [x9, #3609]
  e4:	39303764 	strb	w4, [x27, #3085]
  e8:	62383631 	.inst	0x62383631 ; undefined
  ec:	65303139 	.inst	0x65303139 ; undefined
  f0:	32663562 	.inst	0x32663562 ; undefined
  f4:	65343466 	.inst	0x65343466 ; undefined
  f8:	622f3666 	.inst	0x622f3666 ; undefined
  fc:	646c6975 	.inst	0x646c6975 ; undefined
 100:	6363675f 	.inst	0x6363675f ; undefined
 104:	2e31312d 	usubw	v13.8h, v9.8h, v17.8b
 108:	2f302e32 	.inst	0x2f302e32 ; undefined
 10c:	63726161 	.inst	0x63726161 ; undefined
 110:	2d343668 	stp	s8, s13, [x19, #-96]
 114:	756e696c 	.inst	0x756e696c ; undefined
 118:	6e672d78 	uqsub	v24.8h, v11.8h, v7.8h
 11c:	696c2f75 	ldpsw	x21, x11, [x27, #-160]
 120:	63636762 	.inst	0x63636762 ; undefined
 124:	6d742f00 	ldp	d0, d11, [x24, #-192]
 128:	63672f70 	.inst	0x63672f70 ; undefined
 12c:	32322f63 	orr	w3, w27, #0x3ffc000
 130:	632e2f33 	.inst	0x632e2f33 ; undefined
 134:	6e616e6f 	umin	v15.8h, v19.8h, v1.8h
 138:	7461642f 	.inst	0x7461642f ; undefined
 13c:	63672f61 	.inst	0x63672f61 ; undefined
 140:	2f313163 	.inst	0x2f313163 ; undefined
 144:	322e3131 	orr	w17, w9, #0x7ffc0000
 148:	322e302e 	orr	w14, w1, #0x7ffc0000
 14c:	692f3332 	stgp	x18, x12, [x25, #-544]
 150:	6172666e 	.inst	0x6172666e ; undefined
 154:	6174732f 	.inst	0x6174732f ; undefined
 158:	2f656c62 	.inst	0x2f656c62 ; undefined
 15c:	6c697562 	ldnp	d2, d29, [x11, #-368]
 160:	35632f64 	cbnz	w4, c674c <_init-0x33abc4>
 164:	33383366 	.inst	0x33383366 ; undefined
 168:	36626431 	tbz	w17, #12, 4dec <_init-0x3fc524>
 16c:	64626439 	.inst	0x64626439 ; undefined
 170:	39386530 	strb	w16, [x9, #3609]
 174:	39303764 	strb	w4, [x27, #3085]
 178:	62383631 	.inst	0x62383631 ; undefined
 17c:	65303139 	.inst	0x65303139 ; undefined
 180:	32663562 	.inst	0x32663562 ; undefined
 184:	65343466 	.inst	0x65343466 ; undefined
 188:	672f3666 	.inst	0x672f3666 ; undefined
 18c:	312d6363 	adds	w3, w27, #0xb58
 190:	2e322e31 	uqsub	v17.8b, v17.8b, v18.8b
 194:	696c2f30 	ldpsw	x16, x11, [x25, #-160]
 198:	63636762 	.inst	0x63636762 ; undefined
 19c:	6e6f632f 	rsubhn2	v15.8h, v25.4s, v15.4s
 1a0:	2f676966 	umlsl	v6.4s, v11.4h, v7.h[6]
 1a4:	63726161 	.inst	0x63726161 ; undefined
 1a8:	00343668 	.inst	0x00343668 ; NYI

Disassembly of section .debug_rnglists:

0000000000000000 <.debug_rnglists>:
   0:	00000013 	udf	#19
   4:	00080005 	.inst	0x00080005 ; undefined
   8:	00000000 	udf	#0
   c:	401ab007 	.inst	0x401ab007 ; undefined
  10:	00000000 	udf	#0
  14:	Address 0x0000000000000014 is out of bounds.

